	.text
	.file	"qianshiBTC.c"
	.section	.rodata.cst16,"aM",@progbits,16
	.p2align	4                               # -- Begin function secp256k1_context_create
.LCPI0_0:
	.quad	1528782576908142                # 0x56e6b6e6f776e
	.quad	571204991136263                 # 0x2078206973207
.LCPI0_1:
	.quad	4347608368179571                # 0xf722074686973
	.quad	1713889907705446                # 0x616c617220666
	.text
	.globl	secp256k1_context_create
	.p2align	4, 0x90
	.type	secp256k1_context_create,@function
secp256k1_context_create:               # @secp256k1_context_create
	.cfi_startproc
# %bb.0:
	pushq	%rbp
	.cfi_def_cfa_offset 16
	pushq	%r15
	.cfi_def_cfa_offset 24
	pushq	%r14
	.cfi_def_cfa_offset 32
	pushq	%r13
	.cfi_def_cfa_offset 40
	pushq	%r12
	.cfi_def_cfa_offset 48
	pushq	%rbx
	.cfi_def_cfa_offset 56
	subq	$221720, %rsp                   # imm = 0x36218
	.cfi_def_cfa_offset 221776
	.cfi_offset %rbx, -56
	.cfi_offset %r12, -48
	.cfi_offset %r13, -40
	.cfi_offset %r14, -32
	.cfi_offset %r15, -24
	.cfi_offset %rbp, -16
	movl	%edi, %ebp
	movl	$176, %edi
	callq	malloc@PLT
	testq	%rax, %rax
	je	.LBB0_23
# %bb.1:                                # %checked_malloc.exit
	movq	%rax, %rbx
	xorps	%xmm0, %xmm0
	movups	%xmm0, (%rax)
	testb	$2, %bpl
	je	.LBB0_12
# %bb.2:
	movl	%ebp, 36(%rsp)                  # 4-byte Spill
	movl	$65536, %edi                    # imm = 0x10000
	callq	malloc@PLT
	testq	%rax, %rax
	je	.LBB0_23
# %bb.3:                                # %checked_malloc.exit.i
	movq	%rax, %r12
	movq	%rbx, 16(%rsp)                  # 8-byte Spill
	addq	$8, %rbx
	movabsq	$4503599627370495, %r13         # imm = 0xFFFFFFFFFFFFF
	movabsq	$281474976710655, %rbp          # imm = 0xFFFFFFFFFFFF
	movq	%rbx, 40(%rsp)                  # 8-byte Spill
	movq	%rax, (%rbx)
	movq	secp256k1_ge_const_g+32(%rip), %rax
	movq	%rax, 352(%rsp)
	movups	secp256k1_ge_const_g+16(%rip), %xmm0
	movaps	%xmm0, 336(%rsp)
	movups	secp256k1_ge_const_g(%rip), %xmm0
	movaps	%xmm0, 320(%rsp)
	leaq	secp256k1_ge_const_g(%rip), %rbx
	movups	secp256k1_ge_const_g+40(%rip), %xmm0
	movups	%xmm0, 360(%rsp)
	movups	secp256k1_ge_const_g+56(%rip), %xmm0
	movups	%xmm0, 376(%rsp)
	movq	secp256k1_ge_const_g+72(%rip), %rax
	movq	%rax, 392(%rsp)
	movaps	.LCPI0_0(%rip), %xmm0           # xmm0 = [1528782576908142,571204991136263]
	movaps	%xmm0, 528(%rsp)
	movaps	.LCPI0_1(%rip), %xmm0           # xmm0 = [4347608368179571,1713889907705446]
	movaps	%xmm0, 544(%rsp)
	movabsq	$92807349957475, %rax           # imm = 0x546865207363
	movq	%rax, 560(%rsp)
	leaq	90640(%rsp), %rdi
	leaq	528(%rsp), %rsi
	xorl	%r14d, %r14d
	xorl	%edx, %edx
	callq	secp256k1_ge_set_xo_var
	movl	90720(%rsp), %eax
	movl	%eax, 312(%rsp)
	movups	90640(%rsp), %xmm0
	movups	90656(%rsp), %xmm1
	movaps	%xmm0, 192(%rsp)
	movaps	%xmm1, 208(%rsp)
	movq	90672(%rsp), %rax
	movq	%rax, 224(%rsp)
	movups	90680(%rsp), %xmm0
	movups	%xmm0, 232(%rsp)
	movups	90696(%rsp), %xmm0
	movups	%xmm0, 248(%rsp)
	movq	90712(%rsp), %rax
	movq	%rax, 264(%rsp)
	movq	$1, 272(%rsp)
	xorps	%xmm0, %xmm0
	movups	%xmm0, 280(%rsp)
	movups	%xmm0, 296(%rsp)
	leaq	192(%rsp), %rdi
	movq	%rdi, %rsi
	movq	%rbx, %rdx
	callq	secp256k1_gej_add_ge_var
	movaps	320(%rsp), %xmm0
	movaps	336(%rsp), %xmm1
	movaps	352(%rsp), %xmm2
	movaps	368(%rsp), %xmm3
	movaps	%xmm0, 400(%rsp)
	movaps	%xmm1, 416(%rsp)
	movaps	%xmm2, 432(%rsp)
	movaps	%xmm3, 448(%rsp)
	movaps	384(%rsp), %xmm0
	movaps	%xmm0, 464(%rsp)
	movq	$1, 480(%rsp)
	xorps	%xmm0, %xmm0
	movups	%xmm0, 488(%rsp)
	movups	%xmm0, 504(%rsp)
	movl	$0, 520(%rsp)
	movaps	192(%rsp), %xmm0
	movaps	208(%rsp), %xmm1
	movaps	224(%rsp), %xmm2
	movaps	240(%rsp), %xmm3
	movaps	%xmm0, 64(%rsp)
	movaps	%xmm1, 80(%rsp)
	movaps	%xmm2, 96(%rsp)
	movaps	%xmm3, 112(%rsp)
	movaps	256(%rsp), %xmm0
	movaps	%xmm0, 128(%rsp)
	movaps	272(%rsp), %xmm0
	movaps	%xmm0, 144(%rsp)
	movaps	288(%rsp), %xmm0
	movaps	%xmm0, 160(%rsp)
	movaps	304(%rsp), %xmm0
	movaps	%xmm0, 176(%rsp)
	jmp	.LBB0_4
	.p2align	4, 0x90
.LBB0_6:                                #   in Loop: Header=BB0_4 Depth=1
	addq	$2048, %r14                     # imm = 0x800
	cmpq	$131072, %r14                   # imm = 0x20000
	je	.LBB0_7
.LBB0_4:                                # %.preheader45.preheader.i
                                        # =>This Inner Loop Header: Depth=1
	leaq	(%rsp,%r14), %rsi
	addq	$90640, %rsi                    # imm = 0x16210
	movaps	176(%rsp), %xmm0
	movups	%xmm0, 90752(%rsp,%r14)
	movaps	160(%rsp), %xmm0
	movups	%xmm0, 90736(%rsp,%r14)
	movaps	144(%rsp), %xmm0
	movups	%xmm0, 90720(%rsp,%r14)
	movaps	128(%rsp), %xmm0
	movups	%xmm0, 90704(%rsp,%r14)
	movaps	64(%rsp), %xmm0
	movaps	80(%rsp), %xmm1
	movaps	96(%rsp), %xmm2
	movaps	112(%rsp), %xmm3
	movups	%xmm3, 90688(%rsp,%r14)
	movups	%xmm2, 90672(%rsp,%r14)
	movups	%xmm1, 90656(%rsp,%r14)
	movups	%xmm0, 90640(%rsp,%r14)
	leaq	90768(%rsp,%r14), %rdi
	movq	%rdi, (%rsp)                    # 8-byte Spill
	leaq	400(%rsp), %r15
	movq	%r15, %rdx
	callq	secp256k1_gej_add_var
	leaq	(%rsp,%r14), %rbx
	addq	$90896, %rbx                    # imm = 0x16310
	movq	%rbx, %rdi
	movq	(%rsp), %rsi                    # 8-byte Reload
	movq	%r15, %rdx
	callq	secp256k1_gej_add_var
	leaq	(%rsp,%r14), %rdi
	addq	$91024, %rdi                    # imm = 0x16390
	movq	%rdi, (%rsp)                    # 8-byte Spill
	movq	%rbx, %rsi
	movq	%r15, %rdx
	callq	secp256k1_gej_add_var
	leaq	(%rsp,%r14), %rdi
	addq	$91152, %rdi                    # imm = 0x16410
	movq	%rdi, 8(%rsp)                   # 8-byte Spill
	movq	(%rsp), %rsi                    # 8-byte Reload
	movq	%r15, %rdx
	callq	secp256k1_gej_add_var
	leaq	(%rsp,%r14), %rbx
	addq	$91280, %rbx                    # imm = 0x16490
	movq	%rbx, %rdi
	movq	8(%rsp), %rsi                   # 8-byte Reload
	movq	%r15, %rdx
	callq	secp256k1_gej_add_var
	leaq	(%rsp,%r14), %rdi
	addq	$91408, %rdi                    # imm = 0x16510
	movq	%rdi, (%rsp)                    # 8-byte Spill
	movq	%rbx, %rsi
	movq	%r15, %rdx
	callq	secp256k1_gej_add_var
	leaq	(%rsp,%r14), %rbx
	addq	$91536, %rbx                    # imm = 0x16590
	movq	%rbx, %rdi
	movq	(%rsp), %rsi                    # 8-byte Reload
	movq	%r15, %rdx
	callq	secp256k1_gej_add_var
	leaq	(%rsp,%r14), %rdi
	addq	$91664, %rdi                    # imm = 0x16610
	movq	%rdi, (%rsp)                    # 8-byte Spill
	movq	%rbx, %rsi
	movq	%r15, %rdx
	callq	secp256k1_gej_add_var
	leaq	(%rsp,%r14), %rbx
	addq	$91792, %rbx                    # imm = 0x16690
	movq	%rbx, %rdi
	movq	(%rsp), %rsi                    # 8-byte Reload
	movq	%r15, %rdx
	callq	secp256k1_gej_add_var
	leaq	(%rsp,%r14), %rdi
	addq	$91920, %rdi                    # imm = 0x16710
	movq	%rdi, (%rsp)                    # 8-byte Spill
	movq	%rbx, %rsi
	movq	%r15, %rdx
	callq	secp256k1_gej_add_var
	leaq	(%rsp,%r14), %rbx
	addq	$92048, %rbx                    # imm = 0x16790
	movq	%rbx, %rdi
	movq	(%rsp), %rsi                    # 8-byte Reload
	movq	%r15, %rdx
	callq	secp256k1_gej_add_var
	leaq	(%rsp,%r14), %rdi
	addq	$92176, %rdi                    # imm = 0x16810
	movq	%rdi, (%rsp)                    # 8-byte Spill
	movq	%rbx, %rsi
	movq	%r15, %rdx
	callq	secp256k1_gej_add_var
	leaq	(%rsp,%r14), %rbx
	addq	$92304, %rbx                    # imm = 0x16890
	movq	%rbx, %rdi
	movq	(%rsp), %rsi                    # 8-byte Reload
	movq	%r15, %rdx
	callq	secp256k1_gej_add_var
	leaq	(%rsp,%r14), %rdi
	addq	$92432, %rdi                    # imm = 0x16910
	movq	%rdi, (%rsp)                    # 8-byte Spill
	movq	%rbx, %rsi
	movq	%r15, %rdx
	callq	secp256k1_gej_add_var
	leaq	(%rsp,%r14), %rdi
	addq	$92560, %rdi                    # imm = 0x16990
	movq	(%rsp), %rsi                    # 8-byte Reload
	movq	%r15, %rdx
	callq	secp256k1_gej_add_var
	movq	%r15, %rdi
	movq	%r15, %rsi
	callq	secp256k1_gej_double_var
	movq	%r15, %rdi
	movq	%r15, %rsi
	callq	secp256k1_gej_double_var
	movq	%r15, %rdi
	movq	%r15, %rsi
	callq	secp256k1_gej_double_var
	movq	%r15, %rdi
	movq	%r15, %rsi
	callq	secp256k1_gej_double_var
	leaq	64(%rsp), %rdi
	movq	%rdi, %rsi
	callq	secp256k1_gej_double_var
	cmpq	$126976, %r14                   # imm = 0x1F000
	jne	.LBB0_6
# %bb.5:                                #   in Loop: Header=BB0_4 Depth=1
	movq	136(%rsp), %rax
	movq	%rax, %rcx
	shrq	$48, %rcx
	andq	%rbp, %rax
	movabsq	$4294968273, %rdx               # imm = 0x1000003D1
	imulq	%rdx, %rcx
	addq	104(%rsp), %rcx
	movq	%rcx, %rbp
	shrq	$52, %rbp
	addq	112(%rsp), %rbp
	andq	%r13, %rcx
	movabsq	$18014381329608892, %rsi        # imm = 0x3FFFFBFFFFF0BC
	subq	%rcx, %rsi
	movq	%rbp, %rdx
	shrq	$52, %rdx
	addq	120(%rsp), %rdx
	andq	%r13, %rbp
	movq	%rdx, %rcx
	shrq	$52, %rcx
	addq	128(%rsp), %rcx
	andq	%r13, %rdx
	movq	%rcx, %rdi
	shrq	$52, %rdi
	addq	%rax, %rdi
	movabsq	$1125899906842620, %rax         # imm = 0x3FFFFFFFFFFFC
	subq	%rdi, %rax
	andq	%r13, %rcx
	movq	%rsi, 104(%rsp)
	movabsq	$18014398509481980, %rdi        # imm = 0x3FFFFFFFFFFFFC
	movq	%rdi, %rsi
	subq	%rbp, %rsi
	movabsq	$281474976710655, %rbp          # imm = 0xFFFFFFFFFFFF
	movq	%rsi, 112(%rsp)
	movq	%rdi, %rsi
	subq	%rdx, %rsi
	movq	%rsi, 120(%rsp)
	movq	%rdi, %rdx
	subq	%rcx, %rdx
	movq	%rdx, 128(%rsp)
	movq	%rax, 136(%rsp)
	leaq	64(%rsp), %rdi
	movq	%rdi, %rsi
	leaq	192(%rsp), %rdx
	callq	secp256k1_gej_add_var
	jmp	.LBB0_6
.LBB0_7:
	movabsq	$4503595332402222, %r14         # imm = 0xFFFFEFFFFFC2E
	leaq	528(%rsp), %rsi
	leaq	90640(%rsp), %rdx
	movl	$1024, %edi                     # imm = 0x400
	callq	secp256k1_ge_set_all_gej_var
	addq	$56, %r12
	leaq	600(%rsp), %rax
	xorl	%ecx, %ecx
	.p2align	4, 0x90
.LBB0_8:                                # %.preheader.i
                                        # =>This Loop Header: Depth=1
                                        #     Child Loop BB0_9 Depth 2
	movq	%rcx, 48(%rsp)                  # 8-byte Spill
	movq	%rax, 56(%rsp)                  # 8-byte Spill
	movq	%rax, %rcx
	xorl	%r15d, %r15d
	movq	%r12, 24(%rsp)                  # 8-byte Spill
	.p2align	4, 0x90
.LBB0_9:                                #   Parent Loop BB0_8 Depth=1
                                        # =>  This Inner Loop Header: Depth=2
	movq	%r15, 8(%rsp)                   # 8-byte Spill
	movq	%rcx, (%rsp)                    # 8-byte Spill
	movq	-40(%rcx), %rdi
	movq	%rdi, %rax
	shrq	$48, %rax
	movabsq	$4294968273, %rdx               # imm = 0x1000003D1
	imulq	%rdx, %rax
	movq	%rdx, %r11
	addq	-72(%rcx), %rax
	movq	(%rcx), %r10
	movq	%rax, %rcx
	shrq	$52, %rcx
	movq	(%rsp), %rdx                    # 8-byte Reload
	addq	-64(%rdx), %rcx
	andq	%rbp, %rdi
	movq	%rcx, %rdx
	shrq	$52, %rdx
	movq	(%rsp), %rsi                    # 8-byte Reload
	addq	-56(%rsi), %rdx
	andq	%r13, %rax
	movq	%rdx, %rsi
	shrq	$52, %rsi
	movq	(%rsp), %rbp                    # 8-byte Reload
	addq	-48(%rbp), %rsi
	andq	%r13, %rdx
	movq	%rdx, %rbx
	andq	%rcx, %rbx
	andq	%r13, %rcx
	movq	%rsi, %r8
	shrq	$52, %r8
	addq	%rdi, %r8
	andq	%rsi, %rbx
	andq	%r13, %rsi
	movq	%r8, %r9
	shrq	$48, %r9
	movq	%r8, %rbp
	movabsq	$281474976710655, %rdi          # imm = 0xFFFFFFFFFFFF
	xorq	%rdi, %rbp
	xorq	%r13, %rbx
	orq	%rbp, %rbx
	sete	%bpl
	cmpq	%r14, %rax
	seta	%bl
	andb	%bpl, %bl
	movzbl	%bl, %ebp
	orq	%r9, %rbp
	movq	%r11, %rbx
	imulq	%r11, %rbp
	addq	%rax, %rbp
	movq	%rbp, %rdi
	shrq	$52, %rdi
	addq	%rcx, %rdi
	andq	%r13, %rbp
	movq	%rdi, %rcx
	shrq	$52, %rcx
	addq	%rdx, %rcx
	movq	%rcx, %rax
	shrq	$52, %rax
	addq	%rsi, %rax
	movq	%rax, %r11
	shrq	$52, %r11
	movq	%r10, %rdx
	shrq	$48, %rdx
	imulq	%rbx, %rdx
	movq	(%rsp), %rsi                    # 8-byte Reload
	addq	-32(%rsi), %rdx
	addq	%r8, %r11
	movq	%rdx, %r8
	shrq	$52, %r8
	movq	(%rsp), %rsi                    # 8-byte Reload
	addq	-24(%rsi), %r8
	movabsq	$281474976710655, %rsi          # imm = 0xFFFFFFFFFFFF
	andq	%rsi, %r10
	movq	%r13, %r9
	movq	%r8, %r13
	shrq	$52, %r13
	movq	(%rsp), %rsi                    # 8-byte Reload
	addq	-16(%rsi), %r13
	andq	%r9, %rdx
	movq	%r13, %r15
	shrq	$52, %r15
	movq	(%rsp), %rsi                    # 8-byte Reload
	addq	-8(%rsi), %r15
	andq	%r9, %r13
	movq	%r13, %rsi
	andq	%r8, %rsi
	andq	%r9, %r8
	movq	%r15, %r12
	shrq	$52, %r12
	addq	%r10, %r12
	andq	%r15, %rsi
	andq	%r9, %r15
	movq	%r12, %r10
	shrq	$48, %r10
	movq	%r12, %r14
	movabsq	$281474976710655, %rbx          # imm = 0xFFFFFFFFFFFF
	xorq	%rbx, %r14
	xorq	%r9, %rsi
	orq	%r14, %rsi
	sete	%sil
	movabsq	$4503595332402222, %rbx         # imm = 0xFFFFEFFFFFC2E
	cmpq	%rbx, %rdx
	seta	%bl
	andb	%sil, %bl
	movzbl	%bl, %r14d
	orq	%r10, %r14
	movabsq	$4294968273, %rsi               # imm = 0x1000003D1
	imulq	%rsi, %r14
	addq	%rdx, %r14
	movq	%r14, %rsi
	shrq	$52, %rsi
	addq	%r8, %rsi
	movq	%rsi, %rdx
	shrq	$52, %rdx
	addq	%r13, %rdx
	movq	%r9, %r13
	movq	%rdx, %r10
	shrq	$52, %r10
	addq	%r15, %r10
	movq	8(%rsp), %r15                   # 8-byte Reload
	movabsq	$1099511627775, %r9             # imm = 0xFFFFFFFFFF
	movq	%r10, %r8
	shrq	$52, %r8
	addq	%r12, %r8
	movq	24(%rsp), %r12                  # 8-byte Reload
	movq	%rdi, %rbx
	shlq	$52, %rbx
	orq	%rbp, %rbx
	movabsq	$281474976710655, %rbp          # imm = 0xFFFFFFFFFFFF
	movq	%rbx, -56(%r12,%r15)
	shrq	$12, %rdi
	andq	%r9, %rdi
	movq	%rcx, %rbx
	shlq	$40, %rbx
	orq	%rdi, %rbx
	movq	%rbx, -48(%r12,%r15)
	shrq	$24, %rcx
	andl	$268435455, %ecx                # imm = 0xFFFFFFF
	movq	%rax, %rdi
	shlq	$28, %rdi
	orq	%rcx, %rdi
	movq	(%rsp), %rcx                    # 8-byte Reload
	movq	%rdi, -40(%r12,%r15)
	shrq	$36, %rax
	movzwl	%ax, %eax
	shlq	$16, %r11
	orq	%rax, %r11
	andq	%r13, %r14
	movq	%r11, -32(%r12,%r15)
	movq	%rsi, %rax
	shlq	$52, %rax
	orq	%r14, %rax
	movabsq	$4503595332402222, %r14         # imm = 0xFFFFEFFFFFC2E
	movq	%rax, -24(%r12,%r15)
	shrq	$12, %rsi
	andq	%r9, %rsi
	movq	%rdx, %rax
	shlq	$40, %rax
	orq	%rsi, %rax
	movq	%rax, -16(%r12,%r15)
	shrq	$24, %rdx
	andl	$268435455, %edx                # imm = 0xFFFFFFF
	movq	%r10, %rax
	shlq	$28, %rax
	orq	%rdx, %rax
	movq	%rax, -8(%r12,%r15)
	shrq	$36, %r10
	movzwl	%r10w, %eax
	shlq	$16, %r8
	orq	%rax, %r8
	movq	%r8, (%r12,%r15)
	addq	$64, %r15
	addq	$88, %rcx
	cmpq	$1024, %r15                     # imm = 0x400
	jne	.LBB0_9
# %bb.10:                               #   in Loop: Header=BB0_8 Depth=1
	movq	48(%rsp), %rcx                  # 8-byte Reload
	addq	$1, %rcx
	addq	$1024, %r12                     # imm = 0x400
	movq	56(%rsp), %rax                  # 8-byte Reload
	addq	$1408, %rax                     # imm = 0x580
	cmpq	$64, %rcx
	jne	.LBB0_8
# %bb.11:                               # %secp256k1_ecmult_gen_context_build.exit
	movq	40(%rsp), %rdi                  # 8-byte Reload
	xorl	%esi, %esi
	callq	secp256k1_ecmult_gen_blind
	movq	16(%rsp), %rbx                  # 8-byte Reload
	movl	36(%rsp), %ebp                  # 4-byte Reload
.LBB0_12:
	testb	$1, %bpl
	je	.LBB0_22
# %bb.13:
	cmpq	$0, (%rbx)
	jne	.LBB0_22
# %bb.14:
	movl	$0, 648(%rsp)
	movups	secp256k1_ge_const_g(%rip), %xmm0
	movaps	%xmm0, 528(%rsp)
	movups	secp256k1_ge_const_g+16(%rip), %xmm0
	movaps	%xmm0, 544(%rsp)
	movq	secp256k1_ge_const_g+32(%rip), %rax
	movq	%rax, 560(%rsp)
	movups	secp256k1_ge_const_g+40(%rip), %xmm0
	movups	%xmm0, 568(%rsp)
	movups	secp256k1_ge_const_g+56(%rip), %xmm0
	movups	%xmm0, 584(%rsp)
	movq	secp256k1_ge_const_g+72(%rip), %rax
	movq	%rax, 600(%rsp)
	movq	$1, 608(%rsp)
	xorps	%xmm0, %xmm0
	movups	%xmm0, 616(%rsp)
	movups	%xmm0, 632(%rsp)
	movl	$1048576, %edi                  # imm = 0x100000
	callq	malloc@PLT
	testq	%rax, %rax
	je	.LBB0_23
# %bb.15:                               # %checked_malloc.exit.i11
	movq	%rax, %r14
	movq	%rax, (%rbx)
	movl	$2097152, %edi                  # imm = 0x200000
	callq	malloc@PLT
	testq	%rax, %rax
	je	.LBB0_23
# %bb.16:                               # %checked_malloc.exit.i.i
	movq	%rax, %r12
	movl	$1441792, %edi                  # imm = 0x160000
	callq	malloc@PLT
	testq	%rax, %rax
	je	.LBB0_23
# %bb.17:                               # %checked_malloc.exit2.i.i
	movq	%rax, %r13
	movq	%rbx, 16(%rsp)                  # 8-byte Spill
	movaps	640(%rsp), %xmm0
	movups	%xmm0, 112(%r12)
	movaps	624(%rsp), %xmm0
	movups	%xmm0, 96(%r12)
	movaps	608(%rsp), %xmm0
	movups	%xmm0, 80(%r12)
	movaps	592(%rsp), %xmm0
	movups	%xmm0, 64(%r12)
	movaps	528(%rsp), %xmm0
	movaps	544(%rsp), %xmm1
	movaps	560(%rsp), %xmm2
	movaps	576(%rsp), %xmm3
	movups	%xmm3, 48(%r12)
	movups	%xmm2, 32(%r12)
	movups	%xmm1, 16(%r12)
	movups	%xmm0, (%r12)
	leaq	90640(%rsp), %r15
	leaq	528(%rsp), %rsi
	movq	%r15, %rdi
	callq	secp256k1_gej_double_var
	movl	$16383, %ebp                    # imm = 0x3FFF
	movq	%r12, %rdx
	.p2align	4, 0x90
.LBB0_18:                               # =>This Inner Loop Header: Depth=1
	leaq	128(%rdx), %rbx
	movq	%rbx, %rdi
	movq	%r15, %rsi
	callq	secp256k1_gej_add_var
	movq	%rbx, %rdx
	addq	$-1, %rbp
	jne	.LBB0_18
# %bb.19:
	movl	$16384, %edi                    # imm = 0x4000
	movq	%r13, %rsi
	movq	%r12, 24(%rsp)                  # 8-byte Spill
	movq	%r12, %rdx
	callq	secp256k1_ge_set_all_gej_var
	addq	$56, %r14
	movl	$72, %r9d
	movq	%r13, (%rsp)                    # 8-byte Spill
	.p2align	4, 0x90
.LBB0_20:                               # =>This Inner Loop Header: Depth=1
	movq	%r14, 8(%rsp)                   # 8-byte Spill
	movq	-40(%r13,%r9), %rsi
	movq	%rsi, %rax
	shrq	$48, %rax
	movabsq	$4294968273, %rcx               # imm = 0x1000003D1
	imulq	%rcx, %rax
	movq	%rcx, %r11
	addq	-72(%r13,%r9), %rax
	movq	(%r13,%r9), %r8
	movq	%rax, %rdx
	shrq	$52, %rdx
	addq	-64(%r13,%r9), %rdx
	movabsq	$281474976710655, %rcx          # imm = 0xFFFFFFFFFFFF
	andq	%rcx, %rsi
	movq	%rcx, %r15
	movq	%rdx, %rbp
	shrq	$52, %rbp
	addq	-56(%r13,%r9), %rbp
	movabsq	$4503599627370495, %rbx         # imm = 0xFFFFFFFFFFFFF
	andq	%rbx, %rax
	movq	%rbp, %r10
	shrq	$52, %r10
	addq	-48(%r13,%r9), %r10
	andq	%rbx, %rbp
	movq	%rbp, %rdi
	andq	%rdx, %rdi
	andq	%rbx, %rdx
	movq	%r10, %r14
	shrq	$52, %r14
	addq	%rsi, %r14
	andq	%r10, %rdi
	andq	%rbx, %r10
	movq	%r14, %rsi
	shrq	$48, %rsi
	movq	%r14, %rcx
	xorq	%r15, %rcx
	xorq	%rbx, %rdi
	movq	%rbx, %r12
	orq	%rcx, %rdi
	sete	%cl
	movabsq	$4503595332402222, %rdi         # imm = 0xFFFFEFFFFFC2E
	cmpq	%rdi, %rax
	seta	%bl
	andb	%cl, %bl
	movzbl	%bl, %r13d
	orq	%rsi, %r13
	movq	%r11, %rcx
	imulq	%r11, %r13
	addq	%rax, %r13
	movq	%r13, %rbx
	shrq	$52, %rbx
	addq	%rdx, %rbx
	andq	%r12, %r13
	movq	%rbx, %rsi
	shrq	$52, %rsi
	addq	%rbp, %rsi
	movq	%rsi, %r11
	shrq	$52, %r11
	addq	%r10, %r11
	movq	%r11, %r10
	shrq	$52, %r10
	movq	%r8, %rax
	shrq	$48, %rax
	imulq	%rcx, %rax
	movq	(%rsp), %rcx                    # 8-byte Reload
	addq	-32(%rcx,%r9), %rax
	addq	%r14, %r10
	movq	%rax, %rcx
	shrq	$52, %rcx
	movq	(%rsp), %rdx                    # 8-byte Reload
	addq	-24(%rdx,%r9), %rcx
	movabsq	$281474976710655, %rdx          # imm = 0xFFFFFFFFFFFF
	andq	%rdx, %r8
	movq	%rcx, %r15
	shrq	$52, %r15
	movq	(%rsp), %rdx                    # 8-byte Reload
	addq	-16(%rdx,%r9), %r15
	movq	%r12, %rdi
	andq	%r12, %rax
	movq	%r15, %r14
	shrq	$52, %r14
	movq	(%rsp), %rdx                    # 8-byte Reload
	addq	-8(%rdx,%r9), %r14
	andq	%r12, %r15
	movq	%r15, %rdx
	andq	%rcx, %rdx
	andq	%r12, %rcx
	movq	%r14, %r12
	shrq	$52, %r12
	addq	%r8, %r12
	andq	%r14, %rdx
	andq	%rdi, %r14
	movq	%r12, %r8
	shrq	$48, %r8
	movq	%r12, %rbp
	movabsq	$281474976710655, %rdi          # imm = 0xFFFFFFFFFFFF
	xorq	%rdi, %rbp
	movabsq	$4503599627370495, %rdi         # imm = 0xFFFFFFFFFFFFF
	xorq	%rdi, %rdx
	orq	%rbp, %rdx
	sete	%bpl
	movabsq	$4503595332402222, %rdx         # imm = 0xFFFFEFFFFFC2E
	cmpq	%rdx, %rax
	seta	%dl
	andb	%bpl, %dl
	movzbl	%dl, %edx
	orq	%r8, %rdx
	movabsq	$4294968273, %rdi               # imm = 0x1000003D1
	imulq	%rdi, %rdx
	addq	%rax, %rdx
	movq	%rdx, %rbp
	shrq	$52, %rbp
	addq	%rcx, %rbp
	movq	%rbp, %rax
	shrq	$52, %rax
	addq	%r15, %rax
	movq	%rax, %rcx
	shrq	$52, %rcx
	addq	%r14, %rcx
	movq	8(%rsp), %r14                   # 8-byte Reload
	movq	%rcx, %r8
	shrq	$52, %r8
	addq	%r12, %r8
	movq	%rbx, %rdi
	shlq	$52, %rdi
	orq	%r13, %rdi
	movq	(%rsp), %r13                    # 8-byte Reload
	movq	%rdi, -56(%r14)
	shrq	$12, %rbx
	movabsq	$1099511627775, %r15            # imm = 0xFFFFFFFFFF
	andq	%r15, %rbx
	movq	%rsi, %rdi
	shlq	$40, %rdi
	orq	%rbx, %rdi
	movq	%rdi, -48(%r14)
	shrq	$24, %rsi
	andl	$268435455, %esi                # imm = 0xFFFFFFF
	movq	%r11, %rdi
	shlq	$28, %rdi
	orq	%rsi, %rdi
	movq	%rdi, -40(%r14)
	shrq	$36, %r11
	movzwl	%r11w, %esi
	shlq	$16, %r10
	orq	%rsi, %r10
	movabsq	$4503599627370495, %rsi         # imm = 0xFFFFFFFFFFFFF
	andq	%rsi, %rdx
	movq	%r10, -32(%r14)
	movq	%rbp, %rsi
	shlq	$52, %rsi
	orq	%rdx, %rsi
	movq	%rsi, -24(%r14)
	shrq	$12, %rbp
	andq	%r15, %rbp
	movq	%rax, %rdx
	shlq	$40, %rdx
	orq	%rbp, %rdx
	movq	%rdx, -16(%r14)
	shrq	$24, %rax
	andl	$268435455, %eax                # imm = 0xFFFFFFF
	movq	%rcx, %rdx
	shlq	$28, %rdx
	orq	%rax, %rdx
	movq	%rdx, -8(%r14)
	shrq	$36, %rcx
	movzwl	%cx, %eax
	shlq	$16, %r8
	orq	%rax, %r8
	movq	%r8, (%r14)
	addq	$88, %r9
	addq	$64, %r14
	cmpq	$1441864, %r9                   # imm = 0x160048
	jne	.LBB0_20
# %bb.21:                               # %secp256k1_ecmult_table_precomp_ge_storage_var.exit.i
	movq	24(%rsp), %rdi                  # 8-byte Reload
	callq	free@PLT
	movq	%r13, %rdi
	callq	free@PLT
	movq	16(%rsp), %rbx                  # 8-byte Reload
.LBB0_22:
	movq	%rbx, %rax
	addq	$221720, %rsp                   # imm = 0x36218
	.cfi_def_cfa_offset 56
	popq	%rbx
	.cfi_def_cfa_offset 48
	popq	%r12
	.cfi_def_cfa_offset 40
	popq	%r13
	.cfi_def_cfa_offset 32
	popq	%r14
	.cfi_def_cfa_offset 24
	popq	%r15
	.cfi_def_cfa_offset 16
	popq	%rbp
	.cfi_def_cfa_offset 8
	retq
.LBB0_23:
	.cfi_def_cfa_offset 221776
	movq	stderr@GOTPCREL(%rip), %rax
	movq	(%rax), %rdi
	leaq	.L.str(%rip), %rsi
	leaq	.L.str.76(%rip), %rdx
	leaq	.L.str.77(%rip), %r8
	movl	$66, %ecx
	xorl	%eax, %eax
	callq	fprintf@PLT
	callq	abort@PLT
.Lfunc_end0:
	.size	secp256k1_context_create, .Lfunc_end0-secp256k1_context_create
	.cfi_endproc
                                        # -- End function
	.globl	secp256k1_context_clone         # -- Begin function secp256k1_context_clone
	.p2align	4, 0x90
	.type	secp256k1_context_clone,@function
secp256k1_context_clone:                # @secp256k1_context_clone
	.cfi_startproc
# %bb.0:
	pushq	%r15
	.cfi_def_cfa_offset 16
	pushq	%r14
	.cfi_def_cfa_offset 24
	pushq	%rbx
	.cfi_def_cfa_offset 32
	.cfi_offset %rbx, -32
	.cfi_offset %r14, -24
	.cfi_offset %r15, -16
	movq	%rdi, %r14
	movl	$176, %edi
	callq	malloc@PLT
	testq	%rax, %rax
	je	.LBB1_10
# %bb.1:                                # %checked_malloc.exit
	movq	%rax, %rbx
	movq	(%r14), %r15
	testq	%r15, %r15
	je	.LBB1_2
# %bb.3:
	movl	$1048576, %edi                  # imm = 0x100000
	callq	malloc@PLT
	testq	%rax, %rax
	je	.LBB1_10
# %bb.4:                                # %checked_malloc.exit.i
	movq	%rax, (%rbx)
	movl	$1048576, %edx                  # imm = 0x100000
	movq	%rax, %rdi
	movq	%r15, %rsi
	callq	memcpy@PLT
	movq	8(%r14), %r15
	testq	%r15, %r15
	je	.LBB1_6
.LBB1_7:
	movl	$65536, %edi                    # imm = 0x10000
	callq	malloc@PLT
	testq	%rax, %rax
	je	.LBB1_10
# %bb.8:                                # %checked_malloc.exit.i7
	movq	%rax, 8(%rbx)
	movl	$65536, %edx                    # imm = 0x10000
	movq	%rax, %rdi
	movq	%r15, %rsi
	callq	memcpy@PLT
	movups	48(%r14), %xmm0
	movups	64(%r14), %xmm1
	movups	80(%r14), %xmm2
	movups	96(%r14), %xmm3
	movups	%xmm0, 48(%rbx)
	movups	%xmm1, 64(%rbx)
	movups	%xmm2, 80(%rbx)
	movups	%xmm3, 96(%rbx)
	movups	112(%r14), %xmm0
	movups	%xmm0, 112(%rbx)
	movups	128(%r14), %xmm0
	movups	%xmm0, 128(%rbx)
	movups	144(%r14), %xmm0
	movups	%xmm0, 144(%rbx)
	movups	160(%r14), %xmm0
	movups	%xmm0, 160(%rbx)
	movups	16(%r14), %xmm0
	movups	32(%r14), %xmm1
	movups	%xmm1, 32(%rbx)
	movups	%xmm0, 16(%rbx)
	jmp	.LBB1_9
.LBB1_2:
	movq	$0, (%rbx)
	movq	8(%r14), %r15
	testq	%r15, %r15
	jne	.LBB1_7
.LBB1_6:
	movq	$0, 8(%rbx)
.LBB1_9:                                # %secp256k1_ecmult_gen_context_clone.exit
	movq	%rbx, %rax
	popq	%rbx
	.cfi_def_cfa_offset 24
	popq	%r14
	.cfi_def_cfa_offset 16
	popq	%r15
	.cfi_def_cfa_offset 8
	retq
.LBB1_10:
	.cfi_def_cfa_offset 32
	movq	stderr@GOTPCREL(%rip), %rax
	movq	(%rax), %rdi
	leaq	.L.str(%rip), %rsi
	leaq	.L.str.76(%rip), %rdx
	leaq	.L.str.77(%rip), %r8
	movl	$66, %ecx
	xorl	%eax, %eax
	callq	fprintf@PLT
	callq	abort@PLT
.Lfunc_end1:
	.size	secp256k1_context_clone, .Lfunc_end1-secp256k1_context_clone
	.cfi_endproc
                                        # -- End function
	.globl	secp256k1_context_destroy       # -- Begin function secp256k1_context_destroy
	.p2align	4, 0x90
	.type	secp256k1_context_destroy,@function
secp256k1_context_destroy:              # @secp256k1_context_destroy
	.cfi_startproc
# %bb.0:
	pushq	%rbx
	.cfi_def_cfa_offset 16
	.cfi_offset %rbx, -16
	movq	%rdi, %rbx
	movq	(%rdi), %rdi
	callq	free@PLT
	movq	$0, (%rbx)
	movq	8(%rbx), %rdi
	callq	free@PLT
	movq	%rbx, %rdi
	popq	%rbx
	.cfi_def_cfa_offset 8
	jmp	free@PLT                        # TAILCALL
.Lfunc_end2:
	.size	secp256k1_context_destroy, .Lfunc_end2-secp256k1_context_destroy
	.cfi_endproc
                                        # -- End function
	.section	.rodata.cst16,"aM",@progbits,16
	.p2align	4                               # -- Begin function secp256k1_ecdsa_verify
.LCPI3_0:
	.quad	4503599627370495                # 0xfffffffffffff
	.quad	281474976710655                 # 0xffffffffffff
	.text
	.globl	secp256k1_ecdsa_verify
	.p2align	4, 0x90
	.type	secp256k1_ecdsa_verify,@function
secp256k1_ecdsa_verify:                 # @secp256k1_ecdsa_verify
	.cfi_startproc
# %bb.0:
	pushq	%rbp
	.cfi_def_cfa_offset 16
	pushq	%r15
	.cfi_def_cfa_offset 24
	pushq	%r14
	.cfi_def_cfa_offset 32
	pushq	%r13
	.cfi_def_cfa_offset 40
	pushq	%r12
	.cfi_def_cfa_offset 48
	pushq	%rbx
	.cfi_def_cfa_offset 56
	subq	$664, %rsp                      # imm = 0x298
	.cfi_def_cfa_offset 720
	.cfi_offset %rbx, -56
	.cfi_offset %r12, -48
	.cfi_offset %r13, -40
	.cfi_offset %r14, -32
	.cfi_offset %r15, -24
	.cfi_offset %rbp, -16
	testq	%rdi, %rdi
	je	.LBB3_1
# %bb.3:
	movq	%rdi, %r13
	cmpq	$0, (%rdi)
	je	.LBB3_4
# %bb.5:
	testq	%rsi, %rsi
	je	.LBB3_6
# %bb.7:
	movq	%rdx, %r12
	testq	%rdx, %rdx
	je	.LBB3_8
# %bb.9:
	movq	%r8, %rbx
	testq	%r8, %r8
	je	.LBB3_10
# %bb.11:
	movl	%r9d, %ebp
	movl	%ecx, %r15d
	leaq	600(%rsp), %r14
	movq	%r14, %rdi
	xorl	%edx, %edx
	callq	secp256k1_scalar_set_b32
	leaq	312(%rsp), %rdi
	movq	%rbx, %rsi
	movl	%ebp, %edx
	callq	secp256k1_eckey_pubkey_parse
	testl	%eax, %eax
	je	.LBB3_12
# %bb.13:
	pxor	%xmm0, %xmm0
	movdqa	%xmm0, 128(%rsp)
	movdqa	%xmm0, 112(%rsp)
	movdqa	%xmm0, 416(%rsp)
	movdqa	%xmm0, 400(%rsp)
	cmpb	$48, (%r12)
	jne	.LBB3_32
# %bb.14:
	movzbl	3(%r12), %eax
	leaq	5(%rax), %rcx
	cmpl	%r15d, %ecx
	jge	.LBB3_32
# %bb.15:
	movzbl	(%r12,%rcx), %ebx
	movzbl	1(%r12), %ecx
	leal	(%rbx,%rax), %edx
	addl	$4, %edx
	cmpl	%ecx, %edx
	jne	.LBB3_32
# %bb.16:
	leal	(%rbx,%rax), %ecx
	addl	$6, %ecx
	cmpl	%r15d, %ecx
	jg	.LBB3_32
# %bb.17:
	cmpb	$2, 2(%r12)
	jne	.LBB3_32
# %bb.18:
	testb	%al, %al
	je	.LBB3_32
# %bb.19:
	cmpb	$2, 4(%rax,%r12)
	jne	.LBB3_32
# %bb.20:
	testb	%bl, %bl
	je	.LBB3_32
# %bb.21:                               # %.lr.ph.preheader.i
	movl	%eax, %ecx
	leaq	(%r12,%rcx), %rbp
	addq	$6, %rbp
	leal	-1(%rbx), %edx
	addq	%rcx, %rdx
	leaq	(%r12,%rdx), %rcx
	addq	$7, %rcx
	.p2align	4, 0x90
.LBB3_22:                               # %.lr.ph.i
                                        # =>This Inner Loop Header: Depth=1
	cmpb	$0, (%rbp)
	jne	.LBB3_25
# %bb.23:                               #   in Loop: Header=BB3_22 Depth=1
	addq	$1, %rbp
	addl	$-1, %ebx
	jne	.LBB3_22
# %bb.24:
	xorl	%ebx, %ebx
	movq	%rcx, %rbp
	jmp	.LBB3_26
.LBB3_12:
	movl	$-1, %eax
	jmp	.LBB3_47
.LBB3_25:                               # %.critedge.i
	cmpl	$32, %ebx
	ja	.LBB3_32
.LBB3_26:                               # %.lr.ph78.preheader.i
	leal	-1(%rax), %ecx
	addq	%r12, %rcx
	addq	$5, %rcx
	addq	$4, %r12
	.p2align	4, 0x90
.LBB3_27:                               # %.lr.ph78.i
                                        # =>This Inner Loop Header: Depth=1
	cmpb	$0, (%r12)
	jne	.LBB3_30
# %bb.28:                               #   in Loop: Header=BB3_27 Depth=1
	leal	-1(%rax), %edx
	addq	$1, %r12
	cmpl	$1, %eax
	movl	%edx, %eax
	jg	.LBB3_27
# %bb.29:
	xorl	%eax, %eax
	movq	%rcx, %r12
	jmp	.LBB3_31
.LBB3_30:                               # %.critedge1.i
	cmpl	$32, %eax
	ja	.LBB3_32
.LBB3_31:                               # %.critedge1.thread.i
	movl	%eax, %edx
	leaq	112(%rsp), %r15
	movq	%r15, %rdi
	subq	%rdx, %rdi
	addq	$32, %rdi
	movq	%r12, %rsi
	callq	memcpy@PLT
	movslq	%ebx, %rdx
	leaq	400(%rsp), %rdi
	subq	%rdx, %rdi
	addq	$32, %rdi
	movq	%rbp, %rsi
	callq	memcpy@PLT
	movl	$0, 240(%rsp)
	leaq	48(%rsp), %rbp
	leaq	240(%rsp), %rdx
	movq	%rbp, %rdi
	movq	%r15, %rsi
	callq	secp256k1_scalar_set_b32
	cmpl	$0, 240(%rsp)
	je	.LBB3_33
.LBB3_32:                               # %secp256k1_ecdsa_sig_parse.exit.thread
	movl	$-2, %eax
.LBB3_47:
	addq	$664, %rsp                      # imm = 0x298
	.cfi_def_cfa_offset 56
	popq	%rbx
	.cfi_def_cfa_offset 48
	popq	%r12
	.cfi_def_cfa_offset 40
	popq	%r13
	.cfi_def_cfa_offset 32
	popq	%r14
	.cfi_def_cfa_offset 24
	popq	%r15
	.cfi_def_cfa_offset 16
	popq	%rbp
	.cfi_def_cfa_offset 8
	retq
.LBB3_33:                               # %secp256k1_ecdsa_sig_parse.exit
	.cfi_def_cfa_offset 720
	leaq	80(%rsp), %rbx
	leaq	400(%rsp), %rsi
	leaq	240(%rsp), %rdx
	movq	%rbx, %rdi
	callq	secp256k1_scalar_set_b32
	cmpl	$0, 240(%rsp)
	movl	$-2, %eax
	jne	.LBB3_47
# %bb.34:
	movdqu	48(%rsp), %xmm0
	movdqu	64(%rsp), %xmm1
	por	%xmm0, %xmm1
	pxor	%xmm0, %xmm0
	pcmpeqb	%xmm0, %xmm1
	pmovmskb	%xmm1, %eax
	cmpl	$65535, %eax                    # imm = 0xFFFF
	je	.LBB3_46
# %bb.35:
	movdqu	80(%rsp), %xmm1
	movdqu	96(%rsp), %xmm2
	por	%xmm1, %xmm2
	pcmpeqb	%xmm0, %xmm2
	pmovmskb	%xmm2, %eax
	cmpl	$65535, %eax                    # imm = 0xFFFF
	je	.LBB3_46
# %bb.36:
	leaq	568(%rsp), %r15
	movq	%r15, %rdi
	movq	%rbx, %rsi
	callq	secp256k1_scalar_inverse
	leaq	240(%rsp), %rsi
	movq	%r15, %rdi
	movq	%r14, %rdx
	movq	%r13, 40(%rsp)                  # 8-byte Spill
	#APP
	movq	(%rdi), %r15
	movq	8(%rdi), %rbx
	movq	16(%rdi), %rcx
	movq	(%rdx), %r11
	movq	8(%rdx), %r12
	movq	16(%rdx), %r13
	movq	24(%rdx), %r14
	movq	%r15, %rax
	mulq	%r11
	movq	%rax, (%rsi)
	movq	%rdx, %r8
	xorq	%r9, %r9
	xorq	%r10, %r10
	movq	%r15, %rax
	mulq	%r12
	addq	%rax, %r8
	adcq	%rdx, %r9
	adcq	$0, %r10
	movq	%rbx, %rax
	mulq	%r11
	addq	%rax, %r8
	adcq	%rdx, %r9
	adcq	$0, %r10
	movq	%r8, 8(%rsi)
	xorq	%r8, %r8
	movq	%r15, %rax
	mulq	%r13
	addq	%rax, %r9
	adcq	%rdx, %r10
	adcq	$0, %r8
	movq	%rbx, %rax
	mulq	%r12
	addq	%rax, %r9
	adcq	%rdx, %r10
	adcq	$0, %r8
	movq	%rcx, %rax
	mulq	%r11
	addq	%rax, %r9
	adcq	%rdx, %r10
	adcq	$0, %r8
	movq	%r9, 16(%rsi)
	xorq	%r9, %r9
	movq	%r15, %rax
	mulq	%r14
	addq	%rax, %r10
	adcq	%rdx, %r8
	adcq	$0, %r9
	movq	24(%rdi), %r15
	movq	%rbx, %rax
	mulq	%r13
	addq	%rax, %r10
	adcq	%rdx, %r8
	adcq	$0, %r9
	movq	%rcx, %rax
	mulq	%r12
	addq	%rax, %r10
	adcq	%rdx, %r8
	adcq	$0, %r9
	movq	%r15, %rax
	mulq	%r11
	addq	%rax, %r10
	adcq	%rdx, %r8
	adcq	$0, %r9
	movq	%r10, 24(%rsi)
	xorq	%r10, %r10
	movq	%rbx, %rax
	mulq	%r14
	addq	%rax, %r8
	adcq	%rdx, %r9
	adcq	$0, %r10
	movq	%rcx, %rax
	mulq	%r13
	addq	%rax, %r8
	adcq	%rdx, %r9
	adcq	$0, %r10
	movq	%r15, %rax
	mulq	%r12
	addq	%rax, %r8
	adcq	%rdx, %r9
	adcq	$0, %r10
	movq	%r8, 32(%rsi)
	xorq	%r8, %r8
	movq	%rcx, %rax
	mulq	%r14
	addq	%rax, %r9
	adcq	%rdx, %r10
	adcq	$0, %r8
	movq	%r15, %rax
	mulq	%r13
	addq	%rax, %r9
	adcq	%rdx, %r10
	adcq	$0, %r8
	movq	%r9, 40(%rsi)
	movq	%r15, %rax
	mulq	%r14
	addq	%rax, %r10
	adcq	%rdx, %r8
	movq	%r10, 48(%rsi)
	movq	%r8, 56(%rsi)

	#NO_APP
	leaq	536(%rsp), %rdi
	callq	secp256k1_scalar_reduce_512
	leaq	240(%rsp), %rsi
	leaq	568(%rsp), %rdi
	movq	%rbp, %rdx
	#APP
	movq	(%rdi), %r15
	movq	8(%rdi), %rbx
	movq	16(%rdi), %rcx
	movq	(%rdx), %r11
	movq	8(%rdx), %r12
	movq	16(%rdx), %r13
	movq	24(%rdx), %r14
	movq	%r15, %rax
	mulq	%r11
	movq	%rax, (%rsi)
	movq	%rdx, %r8
	xorq	%r9, %r9
	xorq	%r10, %r10
	movq	%r15, %rax
	mulq	%r12
	addq	%rax, %r8
	adcq	%rdx, %r9
	adcq	$0, %r10
	movq	%rbx, %rax
	mulq	%r11
	addq	%rax, %r8
	adcq	%rdx, %r9
	adcq	$0, %r10
	movq	%r8, 8(%rsi)
	xorq	%r8, %r8
	movq	%r15, %rax
	mulq	%r13
	addq	%rax, %r9
	adcq	%rdx, %r10
	adcq	$0, %r8
	movq	%rbx, %rax
	mulq	%r12
	addq	%rax, %r9
	adcq	%rdx, %r10
	adcq	$0, %r8
	movq	%rcx, %rax
	mulq	%r11
	addq	%rax, %r9
	adcq	%rdx, %r10
	adcq	$0, %r8
	movq	%r9, 16(%rsi)
	xorq	%r9, %r9
	movq	%r15, %rax
	mulq	%r14
	addq	%rax, %r10
	adcq	%rdx, %r8
	adcq	$0, %r9
	movq	24(%rdi), %r15
	movq	%rbx, %rax
	mulq	%r13
	addq	%rax, %r10
	adcq	%rdx, %r8
	adcq	$0, %r9
	movq	%rcx, %rax
	mulq	%r12
	addq	%rax, %r10
	adcq	%rdx, %r8
	adcq	$0, %r9
	movq	%r15, %rax
	mulq	%r11
	addq	%rax, %r10
	adcq	%rdx, %r8
	adcq	$0, %r9
	movq	%r10, 24(%rsi)
	xorq	%r10, %r10
	movq	%rbx, %rax
	mulq	%r14
	addq	%rax, %r8
	adcq	%rdx, %r9
	adcq	$0, %r10
	movq	%rcx, %rax
	mulq	%r13
	addq	%rax, %r8
	adcq	%rdx, %r9
	adcq	$0, %r10
	movq	%r15, %rax
	mulq	%r12
	addq	%rax, %r8
	adcq	%rdx, %r9
	adcq	$0, %r10
	movq	%r8, 32(%rsi)
	xorq	%r8, %r8
	movq	%rcx, %rax
	mulq	%r14
	addq	%rax, %r9
	adcq	%rdx, %r10
	adcq	$0, %r8
	movq	%r15, %rax
	mulq	%r13
	addq	%rax, %r9
	adcq	%rdx, %r10
	adcq	$0, %r8
	movq	%r9, 40(%rsi)
	movq	%r15, %rax
	mulq	%r14
	addq	%rax, %r10
	adcq	%rdx, %r8
	movq	%r10, 48(%rsi)
	movq	%r8, 56(%rsi)

	#NO_APP
	leaq	632(%rsp), %rbx
	movq	%rbx, %rdi
	callq	secp256k1_scalar_reduce_512
	movl	392(%rsp), %eax
	movl	%eax, 232(%rsp)
	movups	312(%rsp), %xmm0
	movdqu	328(%rsp), %xmm1
	movaps	%xmm0, 112(%rsp)
	movdqa	%xmm1, 128(%rsp)
	movq	344(%rsp), %rax
	movq	%rax, 144(%rsp)
	movups	352(%rsp), %xmm0
	movups	%xmm0, 152(%rsp)
	movdqu	368(%rsp), %xmm0
	movdqu	%xmm0, 168(%rsp)
	movq	384(%rsp), %rax
	movq	%rax, 184(%rsp)
	movq	$1, 192(%rsp)
	pxor	%xmm0, %xmm0
	movdqu	%xmm0, 200(%rsp)
	movdqu	%xmm0, 216(%rsp)
	leaq	400(%rsp), %rsi
	leaq	112(%rsp), %rdx
	movq	40(%rsp), %rdi                  # 8-byte Reload
	movq	%rbx, %rcx
	leaq	536(%rsp), %r8
	callq	secp256k1_ecmult
	cmpl	$0, 520(%rsp)
	je	.LBB3_37
.LBB3_46:
	xorl	%eax, %eax
	jmp	.LBB3_47
.LBB3_37:                               # %secp256k1_fe_set_b32.exit.i
	movabsq	$4503599606050524, %rbx         # imm = 0xFFFFFFEBAAEDC
	movq	72(%rsp), %rax
	movq	64(%rsp), %rcx
	movq	48(%rsp), %rdx
	movq	56(%rsp), %rsi
	leaq	21319971(%rbx), %rdi
	andq	%rdx, %rdi
	movq	%rdi, (%rsp)
	shrq	$52, %rdx
	movq	%rsi, %rdi
	shlq	$12, %rdi
	leaq	21315876(%rbx), %rbp
	andq	%rdi, %rbp
	orq	%rdx, %rbp
	movq	%rbp, 8(%rsp)
	shrq	$40, %rsi
	movq	%rax, %rdx
	shldq	$36, %rcx, %rdx
	shlq	$24, %rcx
	leaq	4542756(%rbx), %rdi
	andq	%rcx, %rdi
	orq	%rsi, %rdi
	movq	%rdi, 16(%rsp)
	movabsq	$4503599627370495, %rcx         # imm = 0xFFFFFFFFFFFFF
	andq	%rdx, %rcx
	movq	%rcx, 24(%rsp)
	shrq	$16, %rax
	movq	%rax, 32(%rsp)
	movq	%rsp, %rdi
	leaq	400(%rsp), %rsi
	callq	secp256k1_gej_eq_x_var
	testl	%eax, %eax
	je	.LBB3_39
# %bb.38:                               # %secp256k1_ecdsa_sig_verify.exit.thread30
	movl	$1, %eax
	jmp	.LBB3_47
.LBB3_39:
	movq	32(%rsp), %rax
	orq	24(%rsp), %rax
	jne	.LBB3_46
# %bb.40:
	movq	16(%rsp), %rax
	cmpq	$21319971, %rax                 # imm = 0x1455123
	ja	.LBB3_46
# %bb.41:
	movq	8(%rsp), %rcx
	jne	.LBB3_45
# %bb.42:
	movabsq	$445351433356290, %rdx          # imm = 0x1950B75FC4402
	cmpq	%rdx, %rcx
	ja	.LBB3_46
# %bb.43:
	jne	.LBB3_45
# %bb.44:
	movabsq	$3836686497331950, %rsi         # imm = 0xDA1722FC9BAEE
	movq	%rdx, %rcx
	cmpq	%rsi, (%rsp)
	jae	.LBB3_46
.LBB3_45:                               # %secp256k1_ecdsa_sig_verify.exit
	movabsq	$666908835070273, %rdx          # imm = 0x25E8CD0364141
	addq	%rdx, (%rsp)
	movabsq	$4058248194014205, %rdx         # imm = 0xE6AF48A03BBFD
	addq	%rcx, %rdx
	movq	%rdx, 8(%rsp)
	addq	%rbx, %rax
	movq	%rax, 16(%rsp)
	movdqa	.LCPI3_0(%rip), %xmm0           # xmm0 = [4503599627370495,281474976710655]
	movdqu	%xmm0, 24(%rsp)
	movq	%rsp, %rdi
	leaq	400(%rsp), %rsi
	callq	secp256k1_gej_eq_x_var
	movl	%eax, %ecx
	movl	$1, %eax
	testl	%ecx, %ecx
	jne	.LBB3_47
	jmp	.LBB3_46
.LBB3_1:
	movq	stderr@GOTPCREL(%rip), %rax
	movq	(%rax), %rdi
	leaq	.L.str(%rip), %rsi
	leaq	.L.str.1(%rip), %rdx
	leaq	.L.str.2(%rip), %r8
	movl	$62, %ecx
	jmp	.LBB3_2
.LBB3_4:
	movq	stderr@GOTPCREL(%rip), %rax
	movq	(%rax), %rdi
	leaq	.L.str(%rip), %rsi
	leaq	.L.str.1(%rip), %rdx
	leaq	.L.str.3(%rip), %r8
	movl	$63, %ecx
	jmp	.LBB3_2
.LBB3_6:
	movq	stderr@GOTPCREL(%rip), %rax
	movq	(%rax), %rdi
	leaq	.L.str(%rip), %rsi
	leaq	.L.str.1(%rip), %rdx
	leaq	.L.str.4(%rip), %r8
	movl	$64, %ecx
	jmp	.LBB3_2
.LBB3_8:
	movq	stderr@GOTPCREL(%rip), %rax
	movq	(%rax), %rdi
	leaq	.L.str(%rip), %rsi
	leaq	.L.str.1(%rip), %rdx
	leaq	.L.str.5(%rip), %r8
	movl	$65, %ecx
	jmp	.LBB3_2
.LBB3_10:
	movq	stderr@GOTPCREL(%rip), %rax
	movq	(%rax), %rdi
	leaq	.L.str(%rip), %rsi
	leaq	.L.str.1(%rip), %rdx
	leaq	.L.str.6(%rip), %r8
	movl	$66, %ecx
.LBB3_2:
	xorl	%eax, %eax
	callq	fprintf@PLT
	callq	abort@PLT
.Lfunc_end3:
	.size	secp256k1_ecdsa_verify, .Lfunc_end3-secp256k1_ecdsa_verify
	.cfi_endproc
                                        # -- End function
	.p2align	4, 0x90                         # -- Begin function secp256k1_scalar_set_b32
	.type	secp256k1_scalar_set_b32,@function
secp256k1_scalar_set_b32:               # @secp256k1_scalar_set_b32
	.cfi_startproc
# %bb.0:
	pushq	%rbx
	.cfi_def_cfa_offset 16
	.cfi_offset %rbx, -16
	movq	24(%rsi), %r8
	bswapq	%r8
	movq	%r8, (%rdi)
	movq	16(%rsi), %r9
	bswapq	%r9
	movq	%r9, 8(%rdi)
	movq	8(%rsi), %rbx
	bswapq	%rbx
	movq	%rbx, 16(%rdi)
	movq	(%rsi), %r11
	bswapq	%r11
	cmpq	$-1, %r11
	setne	%r10b
	cmpq	$-2, %rbx
	setb	%cl
	orb	%r10b, %cl
	movzbl	%cl, %eax
	xorl	%esi, %esi
	cmpq	$-1, %rbx
	sete	%sil
	movl	%eax, %ecx
	notl	%ecx
	andl	%esi, %ecx
	movabsq	$-4994812053365940165, %r10     # imm = 0xBAAEDCE6AF48A03B
	xorl	%esi, %esi
	cmpq	%r10, %r9
	setb	%r10b
	seta	%sil
	orb	%r10b, %al
	movzbl	%al, %eax
	notl	%eax
	andl	%eax, %esi
	orl	%ecx, %esi
	movabsq	$-4624529908474429120, %r10     # imm = 0xBFD25E8CD0364140
	xorl	%ecx, %ecx
	cmpq	%r10, %r8
	seta	%cl
	andl	%eax, %ecx
	orl	%esi, %ecx
	movabsq	$4624529908474429119, %rax      # imm = 0x402DA1732FC9BEBF
	imulq	%rcx, %rax
	movabsq	$4994812053365940164, %rsi      # imm = 0x4551231950B75FC4
	imulq	%rcx, %rsi
	addq	%r8, %rax
	movq	%rax, (%rdi)
	adcq	%r9, %rsi
	movq	%rsi, 8(%rdi)
	adcq	%rcx, %rbx
	movq	%rbx, 16(%rdi)
	adcq	$0, %r11
	movq	%r11, 24(%rdi)
	testq	%rdx, %rdx
	je	.LBB4_2
# %bb.1:
	movl	%ecx, (%rdx)
.LBB4_2:
	popq	%rbx
	.cfi_def_cfa_offset 8
	retq
.Lfunc_end4:
	.size	secp256k1_scalar_set_b32, .Lfunc_end4-secp256k1_scalar_set_b32
	.cfi_endproc
                                        # -- End function
	.p2align	4, 0x90                         # -- Begin function secp256k1_eckey_pubkey_parse
	.type	secp256k1_eckey_pubkey_parse,@function
secp256k1_eckey_pubkey_parse:           # @secp256k1_eckey_pubkey_parse
	.cfi_startproc
# %bb.0:
	pushq	%rbp
	.cfi_def_cfa_offset 16
	pushq	%r15
	.cfi_def_cfa_offset 24
	pushq	%r14
	.cfi_def_cfa_offset 32
	pushq	%r13
	.cfi_def_cfa_offset 40
	pushq	%r12
	.cfi_def_cfa_offset 48
	pushq	%rbx
	.cfi_def_cfa_offset 56
	subq	$120, %rsp
	.cfi_def_cfa_offset 176
	.cfi_offset %rbx, -56
	.cfi_offset %r12, -48
	.cfi_offset %r13, -40
	.cfi_offset %r14, -32
	.cfi_offset %r15, -24
	.cfi_offset %rbp, -16
	movq	%rdi, %r12
	xorl	%eax, %eax
	cmpl	$65, %edx
	je	.LBB5_7
# %bb.1:
	cmpl	$33, %edx
	jne	.LBB5_20
# %bb.2:
	movb	(%rsi), %r9b
	movl	%r9d, %edx
	andb	$-2, %dl
	cmpb	$2, %dl
	jne	.LBB5_20
# %bb.3:
	movq	1(%rsi), %r11
	movq	9(%rsi), %rbp
	bswapq	%r11
	bswapq	%rbp
	movabsq	$4503599627370495, %r8          # imm = 0xFFFFFFFFFFFFF
	movq	17(%rsi), %rcx
	bswapq	%rcx
	movq	25(%rsi), %rdx
	bswapq	%rdx
	movq	%rdx, %r10
	andq	%r8, %r10
	movq	%r10, 16(%rsp)
	shrq	$52, %rdx
	movq	%rcx, %rax
	shlq	$12, %rax
	leaq	-4095(%r8), %rsi
	andq	%rax, %rsi
	orq	%rdx, %rsi
	movq	%rsi, 24(%rsp)
	shrq	$40, %rcx
	movq	%r11, %rax
	shldq	$36, %rbp, %rax
	shlq	$24, %rbp
	leaq	-16777215(%r8), %rbx
	andq	%rbp, %rbx
	orq	%rcx, %rbx
	movq	%rbx, 32(%rsp)
	movabsq	$68719476735, %rcx              # imm = 0xFFFFFFFFF
	movabsq	$4503530907893760, %rbp         # imm = 0xFFFF000000000
	orq	%rcx, %rbp
	andq	%rax, %rbp
	movq	%rbp, 40(%rsp)
	shrq	$16, %r11
	movq	%r11, 48(%rsp)
	movabsq	$281474976710655, %rax          # imm = 0xFFFFFFFFFFFF
	cmpq	%rax, %r11
	jne	.LBB5_6
# %bb.4:
	andq	%rbp, %rbx
	andq	%rsi, %rbx
	cmpq	%r8, %rbx
	jne	.LBB5_6
# %bb.5:
	xorl	%eax, %eax
	movabsq	$4503595332402222, %rcx         # imm = 0xFFFFEFFFFFC2E
	cmpq	%rcx, %r10
	ja	.LBB5_20
.LBB5_6:                                # %secp256k1_fe_set_b32.exit
	xorl	%edx, %edx
	cmpb	$3, %r9b
	sete	%dl
	leaq	16(%rsp), %rsi
	movq	%r12, %rdi
	callq	secp256k1_ge_set_xo_var
	movl	%eax, %ecx
	xorl	%eax, %eax
	testl	%ecx, %ecx
	setne	%al
	jmp	.LBB5_20
.LBB5_7:
	movb	(%rsi), %cl
	cmpb	$7, %cl
	ja	.LBB5_20
# %bb.8:
	movzbl	%cl, %ecx
	movl	$208, %edx
	btl	%ecx, %edx
	jae	.LBB5_20
# %bb.9:
	movabsq	$4503599627370495, %r10         # imm = 0xFFFFFFFFFFFFF
	movabsq	$4503530907893760, %r9          # imm = 0xFFFF000000000
	movabsq	$281474976710655, %r8           # imm = 0xFFFFFFFFFFFF
	movq	1(%rsi), %r11
	movq	9(%rsi), %r15
	bswapq	%r11
	bswapq	%r15
	movq	17(%rsi), %rcx
	bswapq	%rcx
	movq	25(%rsi), %rbp
	bswapq	%rbp
	movq	%rbp, %rbx
	andq	%r10, %rbx
	shrq	$52, %rbp
	movq	%rcx, %r14
	shlq	$12, %r14
	leaq	-4095(%r10), %rdi
	andq	%rdi, %r14
	orq	%rbp, %r14
	shrq	$40, %rcx
	movq	%r11, %rbp
	shldq	$36, %r15, %rbp
	shlq	$24, %r15
	leaq	-16777215(%r10), %rdx
	andq	%rdx, %r15
	orq	%rcx, %r15
	movabsq	$68719476735, %r13              # imm = 0xFFFFFFFFF
	orq	%r9, %r13
	andq	%rbp, %r13
	shrq	$16, %r11
	cmpq	%r8, %r11
	jne	.LBB5_12
# %bb.10:
	movq	%r15, %rcx
	andq	%r13, %rcx
	andq	%r14, %rcx
	cmpq	%r10, %rcx
	jne	.LBB5_12
# %bb.11:
	movabsq	$4503595332402222, %rcx         # imm = 0xFFFFEFFFFFC2E
	cmpq	%rcx, %rbx
	ja	.LBB5_20
.LBB5_12:                               # %secp256k1_fe_set_b32.exit27
	movq	%rbx, 56(%rsp)                  # 8-byte Spill
	movq	%r12, 64(%rsp)                  # 8-byte Spill
	movq	33(%rsi), %r8
	movq	41(%rsi), %r9
	bswapq	%r8
	bswapq	%r9
	movq	49(%rsi), %rcx
	bswapq	%rcx
	movq	%r10, %rbx
	movq	57(%rsi), %r10
	bswapq	%r10
	movq	%r10, %r12
	andq	%rbx, %r12
	movq	%r10, %rbp
	shrq	$52, %rbp
	movq	%rcx, %rbx
	shlq	$12, %rbx
	andq	%rdi, %rbx
	orq	%rbp, %rbx
	shrq	$40, %rcx
	movq	%r9, %rdi
	shlq	$24, %rdi
	andq	%rdx, %rdi
	orq	%rcx, %rdi
	shrq	$28, %r9
	movq	%r8, %rcx
	shlq	$36, %rcx
	movabsq	$4503530907893760, %rdx         # imm = 0xFFFF000000000
	andq	%rdx, %rcx
	orq	%r9, %rcx
	shrq	$16, %r8
	movabsq	$281474976710655, %rdx          # imm = 0xFFFFFFFFFFFF
	cmpq	%rdx, %r8
	jne	.LBB5_15
# %bb.13:
	movq	%rdi, %rbp
	andq	%rcx, %rbp
	andq	%rbx, %rbp
	movabsq	$4503599627370495, %rdx         # imm = 0xFFFFFFFFFFFFF
	cmpq	%rdx, %rbp
	jne	.LBB5_15
# %bb.14:
	movabsq	$4503595332402222, %rbp         # imm = 0xFFFFEFFFFFC2E
	cmpq	%rbp, %r12
	ja	.LBB5_20
.LBB5_15:                               # %secp256k1_fe_set_b32.exit30
	movq	64(%rsp), %rbp                  # 8-byte Reload
	movl	$0, 80(%rbp)
	movq	56(%rsp), %rdx                  # 8-byte Reload
	movq	%rdx, (%rbp)
	movq	%r14, 8(%rbp)
	movq	%r15, 16(%rbp)
	movq	%r13, 24(%rbp)
	movq	%r11, 32(%rbp)
	movq	%r12, 40(%rbp)
	movq	%rbx, 48(%rbp)
	movq	%rdi, 56(%rbp)
	movq	%rcx, 64(%rbp)
	movq	%r8, 72(%rbp)
	movb	(%rsi), %cl
	movl	%ecx, %edx
	andb	$-2, %dl
	cmpb	$6, %dl
	jne	.LBB5_17
# %bb.16:
	cmpb	$7, %cl
	setne	%cl
	andb	$1, %r10b
	cmpb	%cl, %r10b
	je	.LBB5_20
.LBB5_17:
	leaq	40(%rbp), %rsi
	leaq	16(%rsp), %rdi
	#APP
	movq	(%rsi), %r10
	movq	8(%rsi), %r11
	movq	16(%rsi), %r12
	movq	24(%rsi), %r13
	movq	32(%rsi), %r14
	movabsq	$4503599627370495, %r15         # imm = 0xFFFFFFFFFFFFF
	leaq	(%r10,%r10), %rax
	mulq	%r13
	movq	%rax, %rbx
	movq	%rdx, %rcx
	leaq	(%r11,%r11), %rax
	mulq	%r12
	addq	%rax, %rbx
	adcq	%rdx, %rcx
	movq	%r14, %rax
	mulq	%r14
	movq	%rax, %r8
	movq	%rdx, %r9
	andq	%r15, %rax
	movabsq	$68719492368, %rdx              # imm = 0x1000003D10
	mulq	%rdx
	addq	%rax, %rbx
	adcq	%rdx, %rcx
	shrdq	$52, %r9, %r8
	movq	%rbx, %rsi
	andq	%r15, %rsi
	movq	%rsi, 80(%rsp)
	shrdq	$52, %rcx, %rbx
	xorq	%rcx, %rcx
	addq	%r14, %r14
	movq	%r10, %rax
	mulq	%r14
	addq	%rax, %rbx
	adcq	%rdx, %rcx
	leaq	(%r11,%r11), %rax
	mulq	%r13
	addq	%rax, %rbx
	adcq	%rdx, %rcx
	movq	%r12, %rax
	mulq	%r12
	addq	%rax, %rbx
	adcq	%rdx, %rcx
	movq	%r8, %rax
	movabsq	$68719492368, %rdx              # imm = 0x1000003D10
	mulq	%rdx
	addq	%rax, %rbx
	adcq	%rdx, %rcx
	movq	%rbx, %rsi
	andq	%r15, %rsi
	shrdq	$52, %rcx, %rbx
	xorq	%rcx, %rcx
	movq	%rsi, %rax
	shrq	$48, %rax
	movq	%rax, (%rsp)
	movabsq	$281474976710655, %rax          # imm = 0xFFFFFFFFFFFF
	andq	%rax, %rsi
	movq	%rsi, 8(%rsp)
	movq	%r10, %rax
	mulq	%r10
	movq	%rax, %r8
	movq	%rdx, %r9
	movq	%r11, %rax
	mulq	%r14
	addq	%rax, %rbx
	adcq	%rdx, %rcx
	leaq	(%r12,%r12), %rax
	mulq	%r13
	addq	%rax, %rbx
	adcq	%rdx, %rcx
	movq	%rbx, %rsi
	andq	%r15, %rsi
	shrdq	$52, %rcx, %rbx
	xorq	%rcx, %rcx
	shlq	$4, %rsi
	movq	(%rsp), %rax
	orq	%rax, %rsi
	movabsq	$4294968273, %rax               # imm = 0x1000003D1
	mulq	%rsi
	addq	%rax, %r8
	adcq	%rdx, %r9
	movq	%r8, %rax
	andq	%r15, %rax
	movq	%rax, (%rdi)
	shrdq	$52, %r9, %r8
	xorq	%r9, %r9
	addq	%r10, %r10
	movq	%r10, %rax
	mulq	%r11
	addq	%rax, %r8
	adcq	%rdx, %r9
	movq	%r12, %rax
	mulq	%r14
	addq	%rax, %rbx
	adcq	%rdx, %rcx
	movq	%r13, %rax
	mulq	%r13
	addq	%rax, %rbx
	adcq	%rdx, %rcx
	movq	%rbx, %rax
	andq	%r15, %rax
	movabsq	$68719492368, %rdx              # imm = 0x1000003D10
	mulq	%rdx
	addq	%rax, %r8
	adcq	%rdx, %r9
	shrdq	$52, %rcx, %rbx
	xorq	%rcx, %rcx
	movq	%r8, %rax
	andq	%r15, %rax
	movq	%rax, 8(%rdi)
	shrdq	$52, %r9, %r8
	xorq	%r9, %r9
	movq	%r10, %rax
	mulq	%r12
	addq	%rax, %r8
	adcq	%rdx, %r9
	movq	8(%rsp), %rsi
	movq	80(%rsp), %r10
	movq	%r11, %rax
	mulq	%r11
	addq	%rax, %r8
	adcq	%rdx, %r9
	movq	%r13, %rax
	mulq	%r14
	addq	%rax, %rbx
	adcq	%rdx, %rcx
	movq	%rbx, %rax
	andq	%r15, %rax
	movabsq	$68719492368, %rdx              # imm = 0x1000003D10
	mulq	%rdx
	addq	%rax, %r8
	adcq	%rdx, %r9
	shrdq	$52, %rcx, %rbx
	movq	%r8, %rax
	andq	%r15, %rax
	movq	%rax, 16(%rdi)
	shrdq	$52, %r9, %r8
	xorq	%r9, %r9
	addq	%r10, %r8
	movq	%rbx, %rax
	movabsq	$68719492368, %rdx              # imm = 0x1000003D10
	mulq	%rdx
	addq	%rax, %r8
	adcq	%rdx, %r9
	movq	%r8, %rax
	andq	%r15, %rax
	movq	%rax, 24(%rdi)
	shrdq	$52, %r9, %r8
	addq	%rsi, %r8
	movq	%r8, 32(%rdi)

	#NO_APP
	leaq	80(%rsp), %rdi
	movq	%rbp, %rsi
	#APP
	movq	(%rsi), %r10
	movq	8(%rsi), %r11
	movq	16(%rsi), %r12
	movq	24(%rsi), %r13
	movq	32(%rsi), %r14
	movabsq	$4503599627370495, %r15         # imm = 0xFFFFFFFFFFFFF
	leaq	(%r10,%r10), %rax
	mulq	%r13
	movq	%rax, %rbx
	movq	%rdx, %rcx
	leaq	(%r11,%r11), %rax
	mulq	%r12
	addq	%rax, %rbx
	adcq	%rdx, %rcx
	movq	%r14, %rax
	mulq	%r14
	movq	%rax, %r8
	movq	%rdx, %r9
	andq	%r15, %rax
	movabsq	$68719492368, %rdx              # imm = 0x1000003D10
	mulq	%rdx
	addq	%rax, %rbx
	adcq	%rdx, %rcx
	shrdq	$52, %r9, %r8
	movq	%rbx, %rsi
	andq	%r15, %rsi
	movq	%rsi, 8(%rsp)
	shrdq	$52, %rcx, %rbx
	xorq	%rcx, %rcx
	addq	%r14, %r14
	movq	%r10, %rax
	mulq	%r14
	addq	%rax, %rbx
	adcq	%rdx, %rcx
	leaq	(%r11,%r11), %rax
	mulq	%r13
	addq	%rax, %rbx
	adcq	%rdx, %rcx
	movq	%r12, %rax
	mulq	%r12
	addq	%rax, %rbx
	adcq	%rdx, %rcx
	movq	%r8, %rax
	movabsq	$68719492368, %rdx              # imm = 0x1000003D10
	mulq	%rdx
	addq	%rax, %rbx
	adcq	%rdx, %rcx
	movq	%rbx, %rsi
	andq	%r15, %rsi
	shrdq	$52, %rcx, %rbx
	xorq	%rcx, %rcx
	movq	%rsi, %rax
	shrq	$48, %rax
	movq	%rax, 72(%rsp)
	movabsq	$281474976710655, %rax          # imm = 0xFFFFFFFFFFFF
	andq	%rax, %rsi
	movq	%rsi, (%rsp)
	movq	%r10, %rax
	mulq	%r10
	movq	%rax, %r8
	movq	%rdx, %r9
	movq	%r11, %rax
	mulq	%r14
	addq	%rax, %rbx
	adcq	%rdx, %rcx
	leaq	(%r12,%r12), %rax
	mulq	%r13
	addq	%rax, %rbx
	adcq	%rdx, %rcx
	movq	%rbx, %rsi
	andq	%r15, %rsi
	shrdq	$52, %rcx, %rbx
	xorq	%rcx, %rcx
	shlq	$4, %rsi
	movq	72(%rsp), %rax
	orq	%rax, %rsi
	movabsq	$4294968273, %rax               # imm = 0x1000003D1
	mulq	%rsi
	addq	%rax, %r8
	adcq	%rdx, %r9
	movq	%r8, %rax
	andq	%r15, %rax
	movq	%rax, (%rdi)
	shrdq	$52, %r9, %r8
	xorq	%r9, %r9
	addq	%r10, %r10
	movq	%r10, %rax
	mulq	%r11
	addq	%rax, %r8
	adcq	%rdx, %r9
	movq	%r12, %rax
	mulq	%r14
	addq	%rax, %rbx
	adcq	%rdx, %rcx
	movq	%r13, %rax
	mulq	%r13
	addq	%rax, %rbx
	adcq	%rdx, %rcx
	movq	%rbx, %rax
	andq	%r15, %rax
	movabsq	$68719492368, %rdx              # imm = 0x1000003D10
	mulq	%rdx
	addq	%rax, %r8
	adcq	%rdx, %r9
	shrdq	$52, %rcx, %rbx
	xorq	%rcx, %rcx
	movq	%r8, %rax
	andq	%r15, %rax
	movq	%rax, 8(%rdi)
	shrdq	$52, %r9, %r8
	xorq	%r9, %r9
	movq	%r10, %rax
	mulq	%r12
	addq	%rax, %r8
	adcq	%rdx, %r9
	movq	(%rsp), %rsi
	movq	8(%rsp), %r10
	movq	%r11, %rax
	mulq	%r11
	addq	%rax, %r8
	adcq	%rdx, %r9
	movq	%r13, %rax
	mulq	%r14
	addq	%rax, %rbx
	adcq	%rdx, %rcx
	movq	%rbx, %rax
	andq	%r15, %rax
	movabsq	$68719492368, %rdx              # imm = 0x1000003D10
	mulq	%rdx
	addq	%rax, %r8
	adcq	%rdx, %r9
	shrdq	$52, %rcx, %rbx
	movq	%r8, %rax
	andq	%r15, %rax
	movq	%rax, 16(%rdi)
	shrdq	$52, %r9, %r8
	xorq	%r9, %r9
	addq	%r10, %r8
	movq	%rbx, %rax
	movabsq	$68719492368, %rdx              # imm = 0x1000003D10
	mulq	%rdx
	addq	%rax, %r8
	adcq	%rdx, %r9
	movq	%r8, %rax
	andq	%r15, %rax
	movq	%rax, 24(%rdi)
	shrdq	$52, %r9, %r8
	addq	%rsi, %r8
	movq	%r8, 32(%rdi)

	#NO_APP
	movq	%rbp, %rbx
	movq	%rdi, %rsi
	#APP
	movq	(%rsi), %r10
	movq	8(%rsi), %r11
	movq	16(%rsi), %r12
	movq	24(%rsi), %r13
	movq	32(%rsi), %r14
	movq	(%rbx), %rax
	mulq	%r13
	movq	%rax, %rcx
	movq	%rdx, %r15
	movq	8(%rbx), %rax
	mulq	%r12
	addq	%rax, %rcx
	adcq	%rdx, %r15
	movq	16(%rbx), %rax
	mulq	%r11
	addq	%rax, %rcx
	adcq	%rdx, %r15
	movq	24(%rbx), %rax
	mulq	%r10
	addq	%rax, %rcx
	adcq	%rdx, %r15
	movq	32(%rbx), %rax
	mulq	%r14
	movq	%rax, %r8
	movq	%rdx, %r9
	movabsq	$4503599627370495, %rdx         # imm = 0xFFFFFFFFFFFFF
	andq	%rdx, %rax
	movabsq	$68719492368, %rdx              # imm = 0x1000003D10
	mulq	%rdx
	addq	%rax, %rcx
	adcq	%rdx, %r15
	shrdq	$52, %r9, %r8
	movq	%rcx, %rsi
	movabsq	$4503599627370495, %rdx         # imm = 0xFFFFFFFFFFFFF
	andq	%rdx, %rsi
	movq	%rsi, 8(%rsp)
	shrdq	$52, %r15, %rcx
	xorq	%r15, %r15
	movq	(%rbx), %rax
	mulq	%r14
	addq	%rax, %rcx
	adcq	%rdx, %r15
	movq	8(%rbx), %rax
	mulq	%r13
	addq	%rax, %rcx
	adcq	%rdx, %r15
	movq	16(%rbx), %rax
	mulq	%r12
	addq	%rax, %rcx
	adcq	%rdx, %r15
	movq	24(%rbx), %rax
	mulq	%r11
	addq	%rax, %rcx
	adcq	%rdx, %r15
	movq	32(%rbx), %rax
	mulq	%r10
	addq	%rax, %rcx
	adcq	%rdx, %r15
	movq	%r8, %rax
	movabsq	$68719492368, %rdx              # imm = 0x1000003D10
	mulq	%rdx
	addq	%rax, %rcx
	adcq	%rdx, %r15
	movq	%rcx, %rsi
	movabsq	$4503599627370495, %rdx         # imm = 0xFFFFFFFFFFFFF
	andq	%rdx, %rsi
	shrdq	$52, %r15, %rcx
	xorq	%r15, %r15
	movq	%rsi, %rax
	shrq	$48, %rax
	movq	%rax, 72(%rsp)
	movabsq	$281474976710655, %rax          # imm = 0xFFFFFFFFFFFF
	andq	%rax, %rsi
	movq	%rsi, (%rsp)
	movq	(%rbx), %rax
	mulq	%r10
	movq	%rax, %r8
	movq	%rdx, %r9
	movq	8(%rbx), %rax
	mulq	%r14
	addq	%rax, %rcx
	adcq	%rdx, %r15
	movq	16(%rbx), %rax
	mulq	%r13
	addq	%rax, %rcx
	adcq	%rdx, %r15
	movq	24(%rbx), %rax
	mulq	%r12
	addq	%rax, %rcx
	adcq	%rdx, %r15
	movq	32(%rbx), %rax
	mulq	%r11
	addq	%rax, %rcx
	adcq	%rdx, %r15
	movq	%rcx, %rsi
	movabsq	$4503599627370495, %rdx         # imm = 0xFFFFFFFFFFFFF
	andq	%rdx, %rsi
	shrdq	$52, %r15, %rcx
	xorq	%r15, %r15
	shlq	$4, %rsi
	movq	72(%rsp), %rax
	orq	%rax, %rsi
	movabsq	$4294968273, %rax               # imm = 0x1000003D1
	mulq	%rsi
	addq	%rax, %r8
	adcq	%rdx, %r9
	movq	%r8, %rax
	movabsq	$4503599627370495, %rdx         # imm = 0xFFFFFFFFFFFFF
	andq	%rdx, %rax
	movq	%rax, (%rdi)
	shrdq	$52, %r9, %r8
	xorq	%r9, %r9
	movq	(%rbx), %rax
	mulq	%r11
	addq	%rax, %r8
	adcq	%rdx, %r9
	movq	8(%rbx), %rax
	mulq	%r10
	addq	%rax, %r8
	adcq	%rdx, %r9
	movq	16(%rbx), %rax
	mulq	%r14
	addq	%rax, %rcx
	adcq	%rdx, %r15
	movq	24(%rbx), %rax
	mulq	%r13
	addq	%rax, %rcx
	adcq	%rdx, %r15
	movq	32(%rbx), %rax
	mulq	%r12
	addq	%rax, %rcx
	adcq	%rdx, %r15
	movq	%rcx, %rax
	movabsq	$4503599627370495, %rdx         # imm = 0xFFFFFFFFFFFFF
	andq	%rdx, %rax
	movabsq	$68719492368, %rdx              # imm = 0x1000003D10
	mulq	%rdx
	addq	%rax, %r8
	adcq	%rdx, %r9
	shrdq	$52, %r15, %rcx
	xorq	%r15, %r15
	movq	%r8, %rax
	movabsq	$4503599627370495, %rdx         # imm = 0xFFFFFFFFFFFFF
	andq	%rdx, %rax
	movq	%rax, 8(%rdi)
	shrdq	$52, %r9, %r8
	xorq	%r9, %r9
	movq	(%rbx), %rax
	mulq	%r12
	addq	%rax, %r8
	adcq	%rdx, %r9
	movq	8(%rbx), %rax
	mulq	%r11
	addq	%rax, %r8
	adcq	%rdx, %r9
	movq	16(%rbx), %rax
	mulq	%r10
	addq	%rax, %r8
	adcq	%rdx, %r9
	movq	(%rsp), %rsi
	movq	8(%rsp), %r10
	movq	24(%rbx), %rax
	mulq	%r14
	addq	%rax, %rcx
	adcq	%rdx, %r15
	movq	32(%rbx), %rax
	mulq	%r13
	addq	%rax, %rcx
	adcq	%rdx, %r15
	movq	%rcx, %rax
	movabsq	$4503599627370495, %rdx         # imm = 0xFFFFFFFFFFFFF
	andq	%rdx, %rax
	movabsq	$68719492368, %rdx              # imm = 0x1000003D10
	mulq	%rdx
	addq	%rax, %r8
	adcq	%rdx, %r9
	shrdq	$52, %r15, %rcx
	movq	%r8, %rax
	movabsq	$4503599627370495, %rdx         # imm = 0xFFFFFFFFFFFFF
	andq	%rdx, %rax
	movq	%rax, 16(%rdi)
	shrdq	$52, %r9, %r8
	xorq	%r9, %r9
	addq	%r10, %r8
	movq	%rcx, %rax
	movabsq	$68719492368, %rdx              # imm = 0x1000003D10
	mulq	%rdx
	addq	%rax, %r8
	adcq	%rdx, %r9
	movq	%r8, %rax
	movabsq	$4503599627370495, %rdx         # imm = 0xFFFFFFFFFFFFF
	andq	%rdx, %rax
	movq	%rax, 24(%rdi)
	shrdq	$52, %r9, %r8
	addq	%rsi, %r8
	movq	%r8, 32(%rdi)

	#NO_APP
	movq	80(%rsp), %rax
	movq	112(%rsp), %rbp
	movq	%rbp, %rcx
	shrq	$48, %rcx
	movabsq	$281474976710655, %rdx          # imm = 0xFFFFFFFFFFFF
	andq	%rdx, %rbp
	movabsq	$4294968273, %r9                # imm = 0x1000003D1
	imulq	%r9, %rcx
	addq	%rcx, %rax
	addq	$7, %rax
	movq	%rax, %rsi
	shrq	$52, %rsi
	addq	88(%rsp), %rsi
	movabsq	$4503599627370495, %r10         # imm = 0xFFFFFFFFFFFFF
	andq	%r10, %rax
	movq	%rsi, %rdi
	shrq	$52, %rdi
	addq	96(%rsp), %rdi
	movq	%rdi, %rdx
	shrq	$52, %rdx
	addq	104(%rsp), %rdx
	movq	%rdx, %rcx
	shrq	$52, %rcx
	subq	48(%rsp), %rbp
	addq	%rcx, %rbp
	movabsq	$1125899906842620, %r8          # imm = 0x3FFFFFFFFFFFC
	addq	%rbp, %r8
	movq	%r8, %rcx
	shrq	$48, %rcx
	subq	16(%rsp), %rax
	imulq	%r9, %rcx
	addq	%rcx, %rax
	movabsq	$18014381329608892, %rbp        # imm = 0x3FFFFBFFFFF0BC
	addq	%rax, %rbp
	movq	%rbp, %rbx
	andq	%r10, %rbx
	addq	$-1, %r9
	xorq	%rbx, %r9
	testq	%rbx, %rbx
	je	.LBB5_19
# %bb.18:
	xorl	%eax, %eax
	cmpq	%r10, %r9
	jne	.LBB5_20
.LBB5_19:
	andq	%r10, %rdx
	andq	%r10, %rdi
	andq	%r10, %rsi
	movabsq	$281474976710655, %rax          # imm = 0xFFFFFFFFFFFF
	andq	%rax, %r8
	shrq	$52, %rbp
	addq	%rsi, %rbp
	movabsq	$18014398509481980, %rax        # imm = 0x3FFFFFFFFFFFFC
	addq	%rax, %rbp
	subq	24(%rsp), %rbp
	movq	%rbp, %rcx
	shrq	$52, %rcx
	addq	%rax, %rdi
	subq	32(%rsp), %rdi
	addq	%rcx, %rdi
	movq	%rbp, %rcx
	andq	%r10, %rcx
	orq	%rbx, %rcx
	andq	%r9, %rbp
	movq	%rdi, %rsi
	shrq	$52, %rsi
	addq	%rax, %rdx
	subq	40(%rsp), %rdx
	addq	%rsi, %rdx
	andq	%rdi, %rbp
	andq	%r10, %rdi
	orq	%rcx, %rdi
	movq	%rdx, %rax
	shrq	$52, %rax
	addq	%r8, %rax
	andq	%rdx, %rbp
	andq	%r10, %rdx
	orq	%rdi, %rdx
	movabsq	$4222124650659840, %rcx         # imm = 0xF000000000000
	xorq	%rax, %rcx
	andq	%rbp, %rcx
	orq	%rax, %rdx
	sete	%al
	cmpq	%r10, %rcx
	sete	%cl
	orb	%al, %cl
	movzbl	%cl, %eax
.LBB5_20:                               # %secp256k1_fe_set_b32.exit27.thread
	addq	$120, %rsp
	.cfi_def_cfa_offset 56
	popq	%rbx
	.cfi_def_cfa_offset 48
	popq	%r12
	.cfi_def_cfa_offset 40
	popq	%r13
	.cfi_def_cfa_offset 32
	popq	%r14
	.cfi_def_cfa_offset 24
	popq	%r15
	.cfi_def_cfa_offset 16
	popq	%rbp
	.cfi_def_cfa_offset 8
	retq
.Lfunc_end5:
	.size	secp256k1_eckey_pubkey_parse, .Lfunc_end5-secp256k1_eckey_pubkey_parse
	.cfi_endproc
                                        # -- End function
	.p2align	4, 0x90                         # -- Begin function nonce_function_rfc6979
	.type	nonce_function_rfc6979,@function
nonce_function_rfc6979:                 # @nonce_function_rfc6979
	.cfi_startproc
# %bb.0:
	pushq	%rbp
	.cfi_def_cfa_offset 16
	pushq	%r15
	.cfi_def_cfa_offset 24
	pushq	%r14
	.cfi_def_cfa_offset 32
	pushq	%rbx
	.cfi_def_cfa_offset 40
	subq	$72, %rsp
	.cfi_def_cfa_offset 112
	.cfi_offset %rbx, -40
	.cfi_offset %r14, -32
	.cfi_offset %r15, -24
	.cfi_offset %rbp, -16
	movq	%r8, %rax
	movl	%ecx, %r15d
	movq	%rsi, %rcx
	movq	%rdi, %rbx
	xorl	%r8d, %r8d
	testq	%rax, %rax
	setne	%r8b
	shlq	$5, %r8
	movq	%rsp, %r14
	movq	%r14, %rdi
	movq	%rdx, %rsi
	movq	%rcx, %rdx
	movq	%rax, %rcx
	callq	secp256k1_rfc6979_hmac_sha256_initialize
	xorl	%ebp, %ebp
	.p2align	4, 0x90
.LBB6_1:                                # =>This Inner Loop Header: Depth=1
	movq	%r14, %rdi
	movq	%rbx, %rsi
	callq	secp256k1_rfc6979_hmac_sha256_generate
	addl	$1, %ebp
	cmpl	%r15d, %ebp
	jbe	.LBB6_1
# %bb.2:
	movl	$1, %eax
	addq	$72, %rsp
	.cfi_def_cfa_offset 40
	popq	%rbx
	.cfi_def_cfa_offset 32
	popq	%r14
	.cfi_def_cfa_offset 24
	popq	%r15
	.cfi_def_cfa_offset 16
	popq	%rbp
	.cfi_def_cfa_offset 8
	retq
.Lfunc_end6:
	.size	nonce_function_rfc6979, .Lfunc_end6-nonce_function_rfc6979
	.cfi_endproc
                                        # -- End function
	.globl	secp256k1_ecdsa_sign            # -- Begin function secp256k1_ecdsa_sign
	.p2align	4, 0x90
	.type	secp256k1_ecdsa_sign,@function
secp256k1_ecdsa_sign:                   # @secp256k1_ecdsa_sign
	.cfi_startproc
# %bb.0:
	pushq	%rbp
	.cfi_def_cfa_offset 16
	pushq	%r15
	.cfi_def_cfa_offset 24
	pushq	%r14
	.cfi_def_cfa_offset 32
	pushq	%r13
	.cfi_def_cfa_offset 40
	pushq	%r12
	.cfi_def_cfa_offset 48
	pushq	%rbx
	.cfi_def_cfa_offset 56
	subq	$456, %rsp                      # imm = 0x1C8
	.cfi_def_cfa_offset 512
	.cfi_offset %rbx, -56
	.cfi_offset %r12, -48
	.cfi_offset %r13, -40
	.cfi_offset %r14, -32
	.cfi_offset %r15, -24
	.cfi_offset %rbp, -16
	movl	$0, 60(%rsp)
	testq	%rdi, %rdi
	je	.LBB7_1
# %bb.3:
	movq	%rdi, %rbp
	cmpq	$0, 8(%rdi)
	je	.LBB7_4
# %bb.5:
	movq	%rsi, %r12
	testq	%rsi, %rsi
	je	.LBB7_6
# %bb.7:
	movq	%rdx, %r13
	testq	%rdx, %rdx
	je	.LBB7_8
# %bb.9:
	movq	%rcx, %r15
	testq	%rcx, %rcx
	je	.LBB7_10
# %bb.11:
	movq	%r8, %rbx
	testq	%r8, %r8
	je	.LBB7_12
# %bb.13:
	testq	%r9, %r9
	leaq	nonce_function_rfc6979(%rip), %r14
	cmovneq	%r9, %r14
	leaq	384(%rsp), %rdi
	leaq	60(%rsp), %rdx
	movq	%rbx, %rsi
	callq	secp256k1_scalar_set_b32
	cmpl	$0, 60(%rsp)
	je	.LBB7_14
.LBB7_172:                              # %.thread51
	movl	$0, (%r15)
	xorl	%eax, %eax
.LBB7_173:
	addq	$456, %rsp                      # imm = 0x1C8
	.cfi_def_cfa_offset 56
	popq	%rbx
	.cfi_def_cfa_offset 48
	popq	%r12
	.cfi_def_cfa_offset 40
	popq	%r13
	.cfi_def_cfa_offset 32
	popq	%r14
	.cfi_def_cfa_offset 24
	popq	%r15
	.cfi_def_cfa_offset 16
	popq	%rbp
	.cfi_def_cfa_offset 8
	retq
.LBB7_14:
	.cfi_def_cfa_offset 512
	movdqa	384(%rsp), %xmm0
	por	400(%rsp), %xmm0
	pxor	%xmm1, %xmm1
	pcmpeqb	%xmm0, %xmm1
	pmovmskb	%xmm1, %eax
	cmpl	$65535, %eax                    # imm = 0xFFFF
	je	.LBB7_172
# %bb.15:
	movq	%r13, 280(%rsp)                 # 8-byte Spill
	movq	%r15, 272(%rsp)                 # 8-byte Spill
	movq	512(%rsp), %r15
	leaq	424(%rsp), %rdi
	movq	%r12, %rsi
	xorl	%edx, %edx
	callq	secp256k1_scalar_set_b32
	leaq	16(%rsp), %rdi
	movq	%r12, %rsi
	movq	%rbx, %rdx
	xorl	%ecx, %ecx
	movq	%r15, %r8
	callq	*%r14
	testl	%eax, %eax
	je	.LBB7_21
# %bb.16:                               # %.lr.ph.preheader
	addq	$8, %rbp
	movl	$1, %r15d
	leaq	16(%rsp), %r13
	movq	%r13, 8(%rsp)                   # 8-byte Spill
	jmp	.LBB7_17
	.p2align	4, 0x90
.LBB7_20:                               #   in Loop: Header=BB7_17 Depth=1
	leaq	16(%rsp), %r13
	movq	%r13, %rdi
	movq	%r12, %rsi
	movq	%rbx, %rdx
	movl	%r15d, %ecx
	movq	512(%rsp), %r8
	callq	*%r14
	addl	$1, %r15d
	testl	%eax, %eax
	je	.LBB7_21
.LBB7_17:                               # %.lr.ph
                                        # =>This Inner Loop Header: Depth=1
	leaq	352(%rsp), %rdi
	movq	%r13, %rsi
	leaq	60(%rsp), %rdx
	callq	secp256k1_scalar_set_b32
	pxor	%xmm1, %xmm1
	movdqa	%xmm1, 32(%rsp)
	movdqa	352(%rsp), %xmm0
	por	368(%rsp), %xmm0
	movdqa	%xmm1, 16(%rsp)
	pcmpeqb	%xmm1, %xmm0
	pmovmskb	%xmm0, %eax
	cmpl	$65535, %eax                    # imm = 0xFFFF
	je	.LBB7_20
# %bb.18:                               # %.lr.ph
                                        #   in Loop: Header=BB7_17 Depth=1
	cmpl	$0, 60(%rsp)
	jne	.LBB7_20
# %bb.19:                               #   in Loop: Header=BB7_17 Depth=1
	movq	%rbp, %rdi
	leaq	288(%rsp), %rsi
	leaq	384(%rsp), %rdx
	leaq	424(%rsp), %rcx
	leaq	352(%rsp), %r8
	xorl	%r9d, %r9d
	callq	secp256k1_ecdsa_sig_sign
	testl	%eax, %eax
	je	.LBB7_20
# %bb.22:
	pxor	%xmm0, %xmm0
	movdqa	%xmm0, 16(%rsp)
	movdqa	%xmm0, 64(%rsp)
	movq	312(%rsp), %rbp
	movq	%rbp, %rax
	bswapq	%rax
	movq	%rax, 17(%rsp)
	movq	304(%rsp), %r9
	movq	%r9, %rax
	bswapq	%rax
	movq	%rax, 25(%rsp)
	movq	296(%rsp), %rax
	movq	%rax, %rcx
	bswapq	%rcx
	movq	288(%rsp), %r15
	movq	%rcx, 33(%rsp)
	movq	%r15, %rcx
	bswapq	%rcx
	movq	%rcx, 41(%rsp)
	movq	344(%rsp), %rdx
	movq	%rdx, %rcx
	bswapq	%rcx
	movq	%rcx, 65(%rsp)
	movq	336(%rsp), %rcx
	movq	%rcx, %rsi
	movq	%rcx, 256(%rsp)                 # 8-byte Spill
	bswapq	%rcx
	movq	%rcx, 73(%rsp)
	movq	328(%rsp), %rcx
	movq	%rcx, %rsi
	movq	%rcx, 248(%rsp)                 # 8-byte Spill
	bswapq	%rcx
	movq	%rcx, 81(%rsp)
	movq	320(%rsp), %rcx
	movq	%rcx, %rsi
	movq	%rcx, 240(%rsp)                 # 8-byte Spill
	bswapq	%rcx
	movq	%rcx, 89(%rsp)
	cmpb	$0, 16(%rsp)
	movl	$33, %ecx
	movq	%rcx, (%rsp)                    # 8-byte Spill
	movl	$33, %esi
	jne	.LBB7_106
# %bb.23:
	testq	%rbp, %rbp
	js	.LBB7_106
# %bb.24:
	leaq	17(%rsp), %rcx
	movq	%rcx, 8(%rsp)                   # 8-byte Spill
	movq	%rbp, %rcx
	shrq	$56, %rcx
	movl	$32, %esi
	testb	%cl, %cl
	jne	.LBB7_106
# %bb.25:
	movq	%rbp, %r11
	shrq	$48, %r11
	movq	%rbp, %r13
	shrq	$40, %r13
	movq	%rbp, %r10
	shrq	$32, %r10
	movq	%rbp, %r8
	shrq	$24, %r8
	movq	%rbp, %rdi
	shrq	$16, %rdi
	movq	%rbp, %r12
	shrq	$8, %r12
	movq	%r9, %rcx
	shrq	$56, %rcx
	movq	%r9, %r14
	shrq	$48, %r14
	movq	%r9, %rbx
	shrq	$40, %rbx
	movq	%rbx, 264(%rsp)                 # 8-byte Spill
	movq	%r9, %rbx
	shrq	$32, %rbx
	movq	%rbx, 232(%rsp)                 # 8-byte Spill
	movq	%r9, %rbx
	shrq	$24, %rbx
	movq	%rbx, 224(%rsp)                 # 8-byte Spill
	movq	%r9, %rbx
	shrq	$16, %rbx
	movq	%rbx, 216(%rsp)                 # 8-byte Spill
	movq	%r9, %rbx
	shrq	$8, %rbx
	movq	%rbx, 208(%rsp)                 # 8-byte Spill
	movq	%rax, %rbx
	shrq	$56, %rbx
	movq	%rbx, 200(%rsp)                 # 8-byte Spill
	movq	%rax, %rbx
	shrq	$48, %rbx
	movq	%rbx, 192(%rsp)                 # 8-byte Spill
	movq	%rax, %rbx
	shrq	$40, %rbx
	movq	%rbx, 184(%rsp)                 # 8-byte Spill
	movq	%rax, %rbx
	shrq	$32, %rbx
	movq	%rbx, 176(%rsp)                 # 8-byte Spill
	movq	%rax, %rbx
	shrq	$24, %rbx
	movq	%rbx, 168(%rsp)                 # 8-byte Spill
	movq	%rax, %rbx
	shrq	$16, %rbx
	movq	%rbx, 160(%rsp)                 # 8-byte Spill
	movq	%rax, %rbx
	shrq	$8, %rbx
	movq	%rbx, 152(%rsp)                 # 8-byte Spill
	movq	%r15, %rbx
	shrq	$56, %rbx
	movq	%rbx, 136(%rsp)                 # 8-byte Spill
	movq	%r15, %rbx
	shrq	$48, %rbx
	movq	%rbx, 144(%rsp)                 # 8-byte Spill
	movq	%r15, %rbx
	shrq	$40, %rbx
	movq	%rbx, 104(%rsp)                 # 8-byte Spill
	movq	%r15, %rbx
	shrq	$32, %rbx
	movq	%rbx, 112(%rsp)                 # 8-byte Spill
	movq	%r15, %rbx
	shrq	$24, %rbx
	movq	%rbx, 120(%rsp)                 # 8-byte Spill
	movq	%r15, %rbx
	shrq	$16, %rbx
	movq	%rbx, 128(%rsp)                 # 8-byte Spill
	movq	%r15, %rbx
	shrq	$8, %rbx
	testb	%r11b, %r11b
	js	.LBB7_106
# %bb.26:
	leaq	18(%rsp), %rsi
	movq	%rsi, 8(%rsp)                   # 8-byte Spill
	movl	$31, %esi
	jne	.LBB7_106
# %bb.27:
	testb	%r13b, %r13b
	js	.LBB7_106
# %bb.28:
	leaq	19(%rsp), %rsi
	movq	%rsi, 8(%rsp)                   # 8-byte Spill
	movl	$30, %esi
	jne	.LBB7_106
# %bb.29:
	testb	%r10b, %r10b
	js	.LBB7_106
# %bb.30:
	leaq	20(%rsp), %rsi
	movq	%rsi, 8(%rsp)                   # 8-byte Spill
	movl	$29, %esi
	jne	.LBB7_106
# %bb.31:
	testb	%r8b, %r8b
	js	.LBB7_106
# %bb.32:
	leaq	21(%rsp), %rsi
	movq	%rsi, 8(%rsp)                   # 8-byte Spill
	movl	$28, %esi
	jne	.LBB7_106
# %bb.33:
	testb	%dil, %dil
	js	.LBB7_106
# %bb.34:
	leaq	22(%rsp), %rsi
	movq	%rsi, 8(%rsp)                   # 8-byte Spill
	movl	$27, %esi
	jne	.LBB7_106
# %bb.35:
	testb	%r12b, %r12b
	js	.LBB7_106
# %bb.36:
	leaq	23(%rsp), %rsi
	movq	%rsi, 8(%rsp)                   # 8-byte Spill
	movl	$26, %esi
	jne	.LBB7_106
# %bb.37:
	testb	%bpl, %bpl
	js	.LBB7_106
# %bb.38:
	leaq	24(%rsp), %rsi
	movq	%rsi, 8(%rsp)                   # 8-byte Spill
	movl	$25, %esi
	jne	.LBB7_106
# %bb.39:
	testq	%r9, %r9
	js	.LBB7_106
# %bb.40:
	leaq	25(%rsp), %rsi
	movq	%rsi, 8(%rsp)                   # 8-byte Spill
	movl	$24, %esi
	testb	%cl, %cl
	jne	.LBB7_106
# %bb.41:
	testb	%r14b, %r14b
	js	.LBB7_106
# %bb.42:
	leaq	26(%rsp), %rcx
	movq	%rcx, 8(%rsp)                   # 8-byte Spill
	jne	.LBB7_43
# %bb.44:
	cmpb	$0, 264(%rsp)                   # 1-byte Folded Reload
	movl	$23, %esi
	js	.LBB7_106
# %bb.45:
	leaq	27(%rsp), %rcx
	movq	%rcx, 8(%rsp)                   # 8-byte Spill
	jne	.LBB7_46
# %bb.47:
	cmpb	$0, 232(%rsp)                   # 1-byte Folded Reload
	movl	$22, %esi
	js	.LBB7_106
# %bb.48:
	leaq	28(%rsp), %rcx
	movq	%rcx, 8(%rsp)                   # 8-byte Spill
	jne	.LBB7_49
# %bb.50:
	cmpb	$0, 224(%rsp)                   # 1-byte Folded Reload
	movl	$21, %esi
	js	.LBB7_106
# %bb.51:
	leaq	29(%rsp), %rcx
	movq	%rcx, 8(%rsp)                   # 8-byte Spill
	jne	.LBB7_52
# %bb.53:
	cmpb	$0, 216(%rsp)                   # 1-byte Folded Reload
	movl	$20, %esi
	js	.LBB7_106
# %bb.54:
	leaq	30(%rsp), %rcx
	movq	%rcx, 8(%rsp)                   # 8-byte Spill
	jne	.LBB7_55
# %bb.56:
	cmpb	$0, 208(%rsp)                   # 1-byte Folded Reload
	movl	$19, %esi
	js	.LBB7_106
# %bb.57:
	leaq	31(%rsp), %rcx
	movq	%rcx, 8(%rsp)                   # 8-byte Spill
	jne	.LBB7_58
# %bb.59:
	testb	%r9b, %r9b
	movl	$18, %esi
	js	.LBB7_106
# %bb.60:
	leaq	32(%rsp), %rcx
	movq	%rcx, 8(%rsp)                   # 8-byte Spill
	jne	.LBB7_61
# %bb.62:
	testq	%rax, %rax
	movl	$17, %esi
	js	.LBB7_106
# %bb.63:
	leaq	33(%rsp), %rcx
	movq	%rcx, 8(%rsp)                   # 8-byte Spill
	cmpb	$0, 200(%rsp)                   # 1-byte Folded Reload
	jne	.LBB7_64
# %bb.65:
	cmpb	$0, 192(%rsp)                   # 1-byte Folded Reload
	movl	$16, %esi
	js	.LBB7_106
# %bb.66:
	leaq	34(%rsp), %rcx
	movq	%rcx, 8(%rsp)                   # 8-byte Spill
	jne	.LBB7_67
# %bb.68:
	cmpb	$0, 184(%rsp)                   # 1-byte Folded Reload
	movl	$15, %esi
	js	.LBB7_106
# %bb.69:
	leaq	35(%rsp), %rcx
	movq	%rcx, 8(%rsp)                   # 8-byte Spill
	jne	.LBB7_70
# %bb.71:
	cmpb	$0, 176(%rsp)                   # 1-byte Folded Reload
	movl	$14, %esi
	js	.LBB7_106
# %bb.72:
	leaq	36(%rsp), %rcx
	movq	%rcx, 8(%rsp)                   # 8-byte Spill
	jne	.LBB7_73
# %bb.74:
	cmpb	$0, 168(%rsp)                   # 1-byte Folded Reload
	movl	$13, %esi
	js	.LBB7_106
# %bb.75:
	leaq	37(%rsp), %rcx
	movq	%rcx, 8(%rsp)                   # 8-byte Spill
	jne	.LBB7_76
# %bb.77:
	cmpb	$0, 160(%rsp)                   # 1-byte Folded Reload
	movl	$12, %esi
	js	.LBB7_106
# %bb.78:
	leaq	38(%rsp), %rcx
	movq	%rcx, 8(%rsp)                   # 8-byte Spill
	jne	.LBB7_79
# %bb.80:
	cmpb	$0, 152(%rsp)                   # 1-byte Folded Reload
	movl	$11, %esi
	js	.LBB7_106
# %bb.81:
	leaq	39(%rsp), %rcx
	movq	%rcx, 8(%rsp)                   # 8-byte Spill
	jne	.LBB7_82
# %bb.83:
	testb	%al, %al
	movl	$10, %esi
	js	.LBB7_106
# %bb.84:
	leaq	40(%rsp), %rax
	movq	%rax, 8(%rsp)                   # 8-byte Spill
	jne	.LBB7_85
# %bb.86:
	testq	%r15, %r15
	movl	$9, %esi
	js	.LBB7_106
# %bb.87:
	leaq	41(%rsp), %rax
	movq	%rax, 8(%rsp)                   # 8-byte Spill
	cmpb	$0, 136(%rsp)                   # 1-byte Folded Reload
	jne	.LBB7_88
# %bb.89:
	cmpb	$0, 144(%rsp)                   # 1-byte Folded Reload
	movl	$8, %esi
	js	.LBB7_106
# %bb.90:
	leaq	42(%rsp), %rax
	movq	%rax, 8(%rsp)                   # 8-byte Spill
	jne	.LBB7_91
# %bb.92:
	cmpb	$0, 104(%rsp)                   # 1-byte Folded Reload
	movl	$7, %esi
	js	.LBB7_106
# %bb.93:
	leaq	43(%rsp), %rax
	movq	%rax, 8(%rsp)                   # 8-byte Spill
	jne	.LBB7_94
# %bb.95:
	cmpb	$0, 112(%rsp)                   # 1-byte Folded Reload
	movl	$6, %esi
	js	.LBB7_106
# %bb.96:
	leaq	44(%rsp), %rax
	movq	%rax, 8(%rsp)                   # 8-byte Spill
	jne	.LBB7_97
# %bb.98:
	cmpb	$0, 120(%rsp)                   # 1-byte Folded Reload
	movl	$5, %esi
	js	.LBB7_106
# %bb.99:
	leaq	45(%rsp), %rax
	movq	%rax, 8(%rsp)                   # 8-byte Spill
	jne	.LBB7_100
# %bb.101:
	cmpb	$0, 128(%rsp)                   # 1-byte Folded Reload
	movl	$4, %esi
	js	.LBB7_106
# %bb.102:
	leaq	46(%rsp), %rax
	movq	%rax, 8(%rsp)                   # 8-byte Spill
	jne	.LBB7_103
# %bb.104:
	testb	%bl, %bl
	movl	$3, %esi
	js	.LBB7_106
# %bb.105:
	leaq	47(%rsp), %rax
	leaq	48(%rsp), %rsi
	sete	%cl
	testb	%r15b, %r15b
	setns	%bl
	andb	%cl, %bl
	cmoveq	%rax, %rsi
	movq	%rsi, 8(%rsp)                   # 8-byte Spill
	movzbl	%bl, %eax
	movl	$2, %esi
	subl	%eax, %esi
	jmp	.LBB7_106
.LBB7_21:                               # %.thread49
	movq	272(%rsp), %r15                 # 8-byte Reload
	xorl	%edx, %edx
.LBB7_171:
	movl	$1, %eax
	testl	%edx, %edx
	jne	.LBB7_173
	jmp	.LBB7_172
.LBB7_43:
	movl	$23, %esi
	jmp	.LBB7_106
.LBB7_46:
	movl	$22, %esi
	jmp	.LBB7_106
.LBB7_49:
	movl	$21, %esi
	jmp	.LBB7_106
.LBB7_52:
	movl	$20, %esi
	jmp	.LBB7_106
.LBB7_1:
	movq	stderr@GOTPCREL(%rip), %rax
	movq	(%rax), %rdi
	leaq	.L.str(%rip), %rsi
	leaq	.L.str.1(%rip), %rdx
	leaq	.L.str.2(%rip), %r8
	movl	$108, %ecx
	jmp	.LBB7_2
.LBB7_4:
	movq	stderr@GOTPCREL(%rip), %rax
	movq	(%rax), %rdi
	leaq	.L.str(%rip), %rsi
	leaq	.L.str.1(%rip), %rdx
	leaq	.L.str.7(%rip), %r8
	movl	$109, %ecx
	jmp	.LBB7_2
.LBB7_6:
	movq	stderr@GOTPCREL(%rip), %rax
	movq	(%rax), %rdi
	leaq	.L.str(%rip), %rsi
	leaq	.L.str.1(%rip), %rdx
	leaq	.L.str.4(%rip), %r8
	movl	$110, %ecx
	jmp	.LBB7_2
.LBB7_8:
	movq	stderr@GOTPCREL(%rip), %rax
	movq	(%rax), %rdi
	leaq	.L.str(%rip), %rsi
	leaq	.L.str.1(%rip), %rdx
	leaq	.L.str.8(%rip), %r8
	movl	$111, %ecx
	jmp	.LBB7_2
.LBB7_10:
	movq	stderr@GOTPCREL(%rip), %rax
	movq	(%rax), %rdi
	leaq	.L.str(%rip), %rsi
	leaq	.L.str.1(%rip), %rdx
	leaq	.L.str.9(%rip), %r8
	movl	$112, %ecx
	jmp	.LBB7_2
.LBB7_12:
	movq	stderr@GOTPCREL(%rip), %rax
	movq	(%rax), %rdi
	leaq	.L.str(%rip), %rsi
	leaq	.L.str.1(%rip), %rdx
	leaq	.L.str.10(%rip), %r8
	movl	$113, %ecx
.LBB7_2:
	xorl	%eax, %eax
	callq	fprintf@PLT
	callq	abort@PLT
.LBB7_55:
	movl	$19, %esi
	jmp	.LBB7_106
.LBB7_58:
	movl	$18, %esi
	jmp	.LBB7_106
.LBB7_61:
	movl	$17, %esi
	jmp	.LBB7_106
.LBB7_64:
	movl	$16, %esi
	jmp	.LBB7_106
.LBB7_67:
	movl	$15, %esi
	jmp	.LBB7_106
.LBB7_70:
	movl	$14, %esi
	jmp	.LBB7_106
.LBB7_73:
	movl	$13, %esi
	jmp	.LBB7_106
.LBB7_76:
	movl	$12, %esi
	jmp	.LBB7_106
.LBB7_79:
	movl	$11, %esi
	jmp	.LBB7_106
.LBB7_82:
	movl	$10, %esi
	jmp	.LBB7_106
.LBB7_85:
	movl	$9, %esi
	jmp	.LBB7_106
.LBB7_88:
	movl	$8, %esi
	jmp	.LBB7_106
.LBB7_91:
	movl	$7, %esi
	jmp	.LBB7_106
.LBB7_94:
	movl	$6, %esi
	jmp	.LBB7_106
.LBB7_97:
	movl	$5, %esi
	jmp	.LBB7_106
.LBB7_100:
	movl	$4, %esi
	jmp	.LBB7_106
.LBB7_103:
	movl	$3, %esi
.LBB7_106:                              # %.critedge.i
	movq	%rsi, 264(%rsp)                 # 8-byte Spill
	leaq	64(%rsp), %r12
	cmpb	$0, 64(%rsp)
	jne	.LBB7_169
# %bb.107:                              # %.critedge.i
	testq	%rdx, %rdx
	js	.LBB7_169
# %bb.108:
	movq	%rdx, %rax
	shrq	$56, %rax
	leaq	65(%rsp), %r12
	movl	$32, %ecx
	movq	%rcx, (%rsp)                    # 8-byte Spill
	testb	%al, %al
	jne	.LBB7_169
# %bb.109:
	movq	%rdx, %r15
	shrq	$48, %r15
	movq	%rdx, %rsi
	shrq	$40, %rsi
	movq	%rdx, %r11
	shrq	$32, %r11
	movq	%rdx, %r13
	shrq	$24, %r13
	movq	%rdx, %r10
	shrq	$16, %r10
	movq	%rdx, %rdi
	shrq	$8, %rdi
	movq	256(%rsp), %rax                 # 8-byte Reload
	movq	%rax, %r8
	shrq	$56, %r8
	movq	%rax, %rcx
	shrq	$48, %rcx
	movq	%rax, %r9
	shrq	$40, %r9
	movq	%rax, %r14
	shrq	$32, %r14
	movq	%rax, %rbx
	shrq	$24, %rbx
	movq	%rbx, 232(%rsp)                 # 8-byte Spill
	movq	%rax, %rbx
	shrq	$16, %rbx
	movq	%rbx, 224(%rsp)                 # 8-byte Spill
	shrq	$8, %rax
	movq	%rax, 216(%rsp)                 # 8-byte Spill
	movq	248(%rsp), %rbx                 # 8-byte Reload
	movq	%rbx, %rbp
	shrq	$56, %rbp
	movq	%rbp, 208(%rsp)                 # 8-byte Spill
	movq	%rbx, %rbp
	shrq	$48, %rbp
	movq	%rbp, 200(%rsp)                 # 8-byte Spill
	movq	%rbx, %rbp
	shrq	$40, %rbp
	movq	%rbp, 192(%rsp)                 # 8-byte Spill
	movq	%rbx, %rbp
	shrq	$32, %rbp
	movq	%rbp, 184(%rsp)                 # 8-byte Spill
	movq	%rbx, %rbp
	shrq	$24, %rbp
	movq	%rbp, 176(%rsp)                 # 8-byte Spill
	movq	%rbx, %rbp
	shrq	$16, %rbp
	movq	%rbp, 168(%rsp)                 # 8-byte Spill
	shrq	$8, %rbx
	movq	%rbx, 160(%rsp)                 # 8-byte Spill
	movq	240(%rsp), %rbx                 # 8-byte Reload
	movq	%rbx, %rbp
	shrq	$56, %rbp
	movq	%rbp, 144(%rsp)                 # 8-byte Spill
	movq	%rbx, %rbp
	shrq	$48, %rbp
	movq	%rbp, 152(%rsp)                 # 8-byte Spill
	movq	%rbx, %rbp
	shrq	$40, %rbp
	movq	%rbp, 104(%rsp)                 # 8-byte Spill
	movq	%rbx, %rbp
	shrq	$32, %rbp
	movq	%rbp, 112(%rsp)                 # 8-byte Spill
	movq	%rbx, %rbp
	shrq	$24, %rbp
	movq	%rbp, 120(%rsp)                 # 8-byte Spill
	movq	%rbx, %rbp
	shrq	$16, %rbp
	movq	%rbp, 128(%rsp)                 # 8-byte Spill
	shrq	$8, %rbx
	movq	%rbx, 136(%rsp)                 # 8-byte Spill
	testb	%r15b, %r15b
	js	.LBB7_169
# %bb.110:
	leaq	66(%rsp), %r12
	movl	$31, %ebx
	movq	%rbx, (%rsp)                    # 8-byte Spill
	jne	.LBB7_169
# %bb.111:
	testb	%sil, %sil
	js	.LBB7_169
# %bb.112:
	leaq	67(%rsp), %r12
	movl	$30, %esi
	movq	%rsi, (%rsp)                    # 8-byte Spill
	jne	.LBB7_169
# %bb.113:
	testb	%r11b, %r11b
	js	.LBB7_169
# %bb.114:
	leaq	68(%rsp), %r12
	movl	$29, %esi
	movq	%rsi, (%rsp)                    # 8-byte Spill
	jne	.LBB7_169
# %bb.115:
	testb	%r13b, %r13b
	js	.LBB7_169
# %bb.116:
	leaq	69(%rsp), %r12
	movl	$28, %esi
	movq	%rsi, (%rsp)                    # 8-byte Spill
	jne	.LBB7_169
# %bb.117:
	testb	%r10b, %r10b
	js	.LBB7_169
# %bb.118:
	leaq	70(%rsp), %r12
	movl	$27, %esi
	movq	%rsi, (%rsp)                    # 8-byte Spill
	jne	.LBB7_169
# %bb.119:
	testb	%dil, %dil
	js	.LBB7_169
# %bb.120:
	leaq	71(%rsp), %r12
	movl	$26, %esi
	movq	%rsi, (%rsp)                    # 8-byte Spill
	jne	.LBB7_169
# %bb.121:
	testb	%dl, %dl
	js	.LBB7_169
# %bb.122:
	leaq	72(%rsp), %r12
	movl	$25, %edx
	movq	%rdx, (%rsp)                    # 8-byte Spill
	jne	.LBB7_169
# %bb.123:
	cmpq	$0, 256(%rsp)                   # 8-byte Folded Reload
	js	.LBB7_169
# %bb.124:
	leaq	73(%rsp), %r12
	movl	$24, %edx
	movq	%rdx, (%rsp)                    # 8-byte Spill
	testb	%r8b, %r8b
	jne	.LBB7_169
# %bb.125:
	testb	%cl, %cl
	js	.LBB7_169
# %bb.126:
	leaq	74(%rsp), %r12
	movl	$23, %ecx
	movq	%rcx, (%rsp)                    # 8-byte Spill
	jne	.LBB7_169
# %bb.127:
	testb	%r9b, %r9b
	js	.LBB7_169
# %bb.128:
	leaq	75(%rsp), %r12
	movl	$22, %ecx
	movq	%rcx, (%rsp)                    # 8-byte Spill
	jne	.LBB7_169
# %bb.129:
	testb	%r14b, %r14b
	js	.LBB7_169
# %bb.130:
	leaq	76(%rsp), %r12
	movl	$21, %ecx
	movq	%rcx, (%rsp)                    # 8-byte Spill
	jne	.LBB7_169
# %bb.131:
	cmpb	$0, 232(%rsp)                   # 1-byte Folded Reload
	js	.LBB7_169
# %bb.132:
	leaq	77(%rsp), %r12
	movl	$20, %ecx
	movq	%rcx, (%rsp)                    # 8-byte Spill
	jne	.LBB7_169
# %bb.133:
	cmpb	$0, 224(%rsp)                   # 1-byte Folded Reload
	js	.LBB7_169
# %bb.134:
	leaq	78(%rsp), %r12
	movl	$19, %ecx
	movq	%rcx, (%rsp)                    # 8-byte Spill
	jne	.LBB7_169
# %bb.135:
	cmpb	$0, 216(%rsp)                   # 1-byte Folded Reload
	js	.LBB7_169
# %bb.136:
	leaq	79(%rsp), %r12
	movl	$18, %eax
	movq	%rax, (%rsp)                    # 8-byte Spill
	jne	.LBB7_169
# %bb.137:
	cmpb	$0, 256(%rsp)                   # 1-byte Folded Reload
	js	.LBB7_169
# %bb.138:
	leaq	80(%rsp), %r12
	movl	$17, %eax
	movq	%rax, (%rsp)                    # 8-byte Spill
	jne	.LBB7_169
# %bb.139:
	cmpq	$0, 248(%rsp)                   # 8-byte Folded Reload
	js	.LBB7_169
# %bb.140:
	leaq	81(%rsp), %r12
	movl	$16, %eax
	movq	%rax, (%rsp)                    # 8-byte Spill
	cmpb	$0, 208(%rsp)                   # 1-byte Folded Reload
	jne	.LBB7_169
# %bb.141:
	cmpb	$0, 200(%rsp)                   # 1-byte Folded Reload
	js	.LBB7_169
# %bb.142:
	leaq	82(%rsp), %r12
	movl	$15, %eax
	movq	%rax, (%rsp)                    # 8-byte Spill
	jne	.LBB7_169
# %bb.143:
	cmpb	$0, 192(%rsp)                   # 1-byte Folded Reload
	js	.LBB7_169
# %bb.144:
	leaq	83(%rsp), %r12
	movl	$14, %eax
	movq	%rax, (%rsp)                    # 8-byte Spill
	jne	.LBB7_169
# %bb.145:
	cmpb	$0, 184(%rsp)                   # 1-byte Folded Reload
	js	.LBB7_169
# %bb.146:
	leaq	84(%rsp), %r12
	movl	$13, %eax
	movq	%rax, (%rsp)                    # 8-byte Spill
	jne	.LBB7_169
# %bb.147:
	cmpb	$0, 176(%rsp)                   # 1-byte Folded Reload
	js	.LBB7_169
# %bb.148:
	leaq	85(%rsp), %r12
	movl	$12, %eax
	movq	%rax, (%rsp)                    # 8-byte Spill
	jne	.LBB7_169
# %bb.149:
	cmpb	$0, 168(%rsp)                   # 1-byte Folded Reload
	js	.LBB7_169
# %bb.150:
	leaq	86(%rsp), %r12
	movl	$11, %eax
	movq	%rax, (%rsp)                    # 8-byte Spill
	jne	.LBB7_169
# %bb.151:
	cmpb	$0, 160(%rsp)                   # 1-byte Folded Reload
	js	.LBB7_169
# %bb.152:
	leaq	87(%rsp), %r12
	movl	$10, %eax
	movq	%rax, (%rsp)                    # 8-byte Spill
	jne	.LBB7_169
# %bb.153:
	cmpb	$0, 248(%rsp)                   # 1-byte Folded Reload
	js	.LBB7_169
# %bb.154:
	leaq	88(%rsp), %r12
	movl	$9, %eax
	movq	%rax, (%rsp)                    # 8-byte Spill
	jne	.LBB7_169
# %bb.155:
	cmpq	$0, 240(%rsp)                   # 8-byte Folded Reload
	js	.LBB7_169
# %bb.156:
	leaq	89(%rsp), %r12
	movl	$8, %eax
	movq	%rax, (%rsp)                    # 8-byte Spill
	cmpb	$0, 144(%rsp)                   # 1-byte Folded Reload
	jne	.LBB7_169
# %bb.157:
	cmpb	$0, 152(%rsp)                   # 1-byte Folded Reload
	js	.LBB7_169
# %bb.158:
	leaq	90(%rsp), %r12
	movl	$7, %eax
	movq	%rax, (%rsp)                    # 8-byte Spill
	jne	.LBB7_169
# %bb.159:
	cmpb	$0, 104(%rsp)                   # 1-byte Folded Reload
	js	.LBB7_169
# %bb.160:
	leaq	91(%rsp), %r12
	movl	$6, %eax
	movq	%rax, (%rsp)                    # 8-byte Spill
	jne	.LBB7_169
# %bb.161:
	cmpb	$0, 112(%rsp)                   # 1-byte Folded Reload
	js	.LBB7_169
# %bb.162:
	leaq	92(%rsp), %r12
	movl	$5, %eax
	movq	%rax, (%rsp)                    # 8-byte Spill
	jne	.LBB7_169
# %bb.163:
	cmpb	$0, 120(%rsp)                   # 1-byte Folded Reload
	js	.LBB7_169
# %bb.164:
	leaq	93(%rsp), %r12
	movl	$4, %eax
	movq	%rax, (%rsp)                    # 8-byte Spill
	jne	.LBB7_169
# %bb.165:
	cmpb	$0, 128(%rsp)                   # 1-byte Folded Reload
	js	.LBB7_169
# %bb.166:
	leaq	94(%rsp), %r12
	movl	$3, %eax
	movq	%rax, (%rsp)                    # 8-byte Spill
	jne	.LBB7_169
# %bb.167:
	cmpb	$0, 136(%rsp)                   # 1-byte Folded Reload
	js	.LBB7_169
# %bb.168:
	leaq	95(%rsp), %rax
	leaq	96(%rsp), %r12
	sete	%cl
	cmpb	$0, 240(%rsp)                   # 1-byte Folded Reload
	setns	%dl
	andb	%cl, %dl
	cmoveq	%rax, %r12
	movzbl	%dl, %eax
	movl	$2, %ecx
	subl	%eax, %ecx
	movq	%rcx, (%rsp)                    # 8-byte Spill
.LBB7_169:                              # %.critedge2.i
	movq	(%rsp), %r14                    # 8-byte Reload
	movq	264(%rsp), %rcx                 # 8-byte Reload
	leal	(%rcx,%r14), %eax
	addl	$6, %eax
	xorl	%edx, %edx
	movq	272(%rsp), %r15                 # 8-byte Reload
	cmpl	%eax, (%r15)
	jl	.LBB7_171
# %bb.170:
	movl	%eax, (%r15)
	movq	280(%rsp), %rbp                 # 8-byte Reload
	movb	$48, (%rbp)
	movl	%ecx, %ebx
	leaq	4(%rbx), %rax
	addl	%r14d, %eax
	movb	%al, 1(%rbp)
	movb	$2, 2(%rbp)
	movb	%cl, 3(%rbp)
	leaq	4(%rbp), %rdi
	movq	8(%rsp), %rsi                   # 8-byte Reload
	movq	%rbx, %rdx
	callq	memcpy@PLT
	movb	$2, 4(%rbp,%rbx)
	movb	%r14b, 5(%rbp,%rbx)
	leaq	(%rbx,%rbp), %rdi
	addq	$6, %rdi
	movl	%r14d, %edx
	movq	%r12, %rsi
	callq	memcpy@PLT
	movl	$1, %edx
	jmp	.LBB7_171
.Lfunc_end7:
	.size	secp256k1_ecdsa_sign, .Lfunc_end7-secp256k1_ecdsa_sign
	.cfi_endproc
                                        # -- End function
	.section	.rodata.cst16,"aM",@progbits,16
	.p2align	4                               # -- Begin function secp256k1_ecdsa_sig_sign
.LCPI8_0:
	.zero	16
	.text
	.p2align	4, 0x90
	.type	secp256k1_ecdsa_sig_sign,@function
secp256k1_ecdsa_sig_sign:               # @secp256k1_ecdsa_sig_sign
	.cfi_startproc
# %bb.0:
	pushq	%rbp
	.cfi_def_cfa_offset 16
	pushq	%r15
	.cfi_def_cfa_offset 24
	pushq	%r14
	.cfi_def_cfa_offset 32
	pushq	%r13
	.cfi_def_cfa_offset 40
	pushq	%r12
	.cfi_def_cfa_offset 48
	pushq	%rbx
	.cfi_def_cfa_offset 56
	subq	$344, %rsp                      # imm = 0x158
	.cfi_def_cfa_offset 400
	.cfi_offset %rbx, -56
	.cfi_offset %r12, -48
	.cfi_offset %r13, -40
	.cfi_offset %r14, -32
	.cfi_offset %r15, -24
	.cfi_offset %rbp, -16
	movq	%r9, 56(%rsp)                   # 8-byte Spill
	movq	%rcx, 80(%rsp)                  # 8-byte Spill
	movq	%rdx, 72(%rsp)                  # 8-byte Spill
	movq	%rsi, (%rsp)                    # 8-byte Spill
	movl	$0, 12(%rsp)
	leaq	144(%rsp), %rsi
	movq	%r8, 88(%rsp)                   # 8-byte Spill
	movq	%r8, %rdx
	callq	secp256k1_ecmult_gen
	leaq	224(%rsp), %rbp
	movq	%rbp, %rdi
	movq	%rbp, %rsi
	callq	secp256k1_fe_inv_var
	leaq	272(%rsp), %rdi
	movq	%rbp, %rsi
	#APP
	movq	(%rsi), %r10
	movq	8(%rsi), %r11
	movq	16(%rsi), %r12
	movq	24(%rsi), %r13
	movq	32(%rsi), %r14
	movabsq	$4503599627370495, %r15         # imm = 0xFFFFFFFFFFFFF
	leaq	(%r10,%r10), %rax
	mulq	%r13
	movq	%rax, %rbx
	movq	%rdx, %rcx
	leaq	(%r11,%r11), %rax
	mulq	%r12
	addq	%rax, %rbx
	adcq	%rdx, %rcx
	movq	%r14, %rax
	mulq	%r14
	movq	%rax, %r8
	movq	%rdx, %r9
	andq	%r15, %rax
	movabsq	$68719492368, %rdx              # imm = 0x1000003D10
	mulq	%rdx
	addq	%rax, %rbx
	adcq	%rdx, %rcx
	shrdq	$52, %r9, %r8
	movq	%rbx, %rsi
	andq	%r15, %rsi
	movq	%rsi, 96(%rsp)
	shrdq	$52, %rcx, %rbx
	xorq	%rcx, %rcx
	addq	%r14, %r14
	movq	%r10, %rax
	mulq	%r14
	addq	%rax, %rbx
	adcq	%rdx, %rcx
	leaq	(%r11,%r11), %rax
	mulq	%r13
	addq	%rax, %rbx
	adcq	%rdx, %rcx
	movq	%r12, %rax
	mulq	%r12
	addq	%rax, %rbx
	adcq	%rdx, %rcx
	movq	%r8, %rax
	movabsq	$68719492368, %rdx              # imm = 0x1000003D10
	mulq	%rdx
	addq	%rax, %rbx
	adcq	%rdx, %rcx
	movq	%rbx, %rsi
	andq	%r15, %rsi
	shrdq	$52, %rcx, %rbx
	xorq	%rcx, %rcx
	movq	%rsi, %rax
	shrq	$48, %rax
	movq	%rax, 16(%rsp)
	movabsq	$281474976710655, %rax          # imm = 0xFFFFFFFFFFFF
	andq	%rax, %rsi
	movq	%rsi, 24(%rsp)
	movq	%r10, %rax
	mulq	%r10
	movq	%rax, %r8
	movq	%rdx, %r9
	movq	%r11, %rax
	mulq	%r14
	addq	%rax, %rbx
	adcq	%rdx, %rcx
	leaq	(%r12,%r12), %rax
	mulq	%r13
	addq	%rax, %rbx
	adcq	%rdx, %rcx
	movq	%rbx, %rsi
	andq	%r15, %rsi
	shrdq	$52, %rcx, %rbx
	xorq	%rcx, %rcx
	shlq	$4, %rsi
	movq	16(%rsp), %rax
	orq	%rax, %rsi
	movabsq	$4294968273, %rax               # imm = 0x1000003D1
	mulq	%rsi
	addq	%rax, %r8
	adcq	%rdx, %r9
	movq	%r8, %rax
	andq	%r15, %rax
	movq	%rax, (%rdi)
	shrdq	$52, %r9, %r8
	xorq	%r9, %r9
	addq	%r10, %r10
	movq	%r10, %rax
	mulq	%r11
	addq	%rax, %r8
	adcq	%rdx, %r9
	movq	%r12, %rax
	mulq	%r14
	addq	%rax, %rbx
	adcq	%rdx, %rcx
	movq	%r13, %rax
	mulq	%r13
	addq	%rax, %rbx
	adcq	%rdx, %rcx
	movq	%rbx, %rax
	andq	%r15, %rax
	movabsq	$68719492368, %rdx              # imm = 0x1000003D10
	mulq	%rdx
	addq	%rax, %r8
	adcq	%rdx, %r9
	shrdq	$52, %rcx, %rbx
	xorq	%rcx, %rcx
	movq	%r8, %rax
	andq	%r15, %rax
	movq	%rax, 8(%rdi)
	shrdq	$52, %r9, %r8
	xorq	%r9, %r9
	movq	%r10, %rax
	mulq	%r12
	addq	%rax, %r8
	adcq	%rdx, %r9
	movq	24(%rsp), %rsi
	movq	96(%rsp), %r10
	movq	%r11, %rax
	mulq	%r11
	addq	%rax, %r8
	adcq	%rdx, %r9
	movq	%r13, %rax
	mulq	%r14
	addq	%rax, %rbx
	adcq	%rdx, %rcx
	movq	%rbx, %rax
	andq	%r15, %rax
	movabsq	$68719492368, %rdx              # imm = 0x1000003D10
	mulq	%rdx
	addq	%rax, %r8
	adcq	%rdx, %r9
	shrdq	$52, %rcx, %rbx
	movq	%r8, %rax
	andq	%r15, %rax
	movq	%rax, 16(%rdi)
	shrdq	$52, %r9, %r8
	xorq	%r9, %r9
	addq	%r10, %r8
	movq	%rbx, %rax
	movabsq	$68719492368, %rdx              # imm = 0x1000003D10
	mulq	%rdx
	addq	%rax, %r8
	adcq	%rdx, %r9
	movq	%r8, %rax
	andq	%r15, %rax
	movq	%rax, 24(%rdi)
	shrdq	$52, %r9, %r8
	addq	%rsi, %r8
	movq	%r8, 32(%rdi)

	#NO_APP
	leaq	96(%rsp), %rdi
	leaq	272(%rsp), %rbx
	movq	%rbp, %rsi
	#APP
	movq	(%rsi), %r10
	movq	8(%rsi), %r11
	movq	16(%rsi), %r12
	movq	24(%rsi), %r13
	movq	32(%rsi), %r14
	movq	(%rbx), %rax
	mulq	%r13
	movq	%rax, %rcx
	movq	%rdx, %r15
	movq	8(%rbx), %rax
	mulq	%r12
	addq	%rax, %rcx
	adcq	%rdx, %r15
	movq	16(%rbx), %rax
	mulq	%r11
	addq	%rax, %rcx
	adcq	%rdx, %r15
	movq	24(%rbx), %rax
	mulq	%r10
	addq	%rax, %rcx
	adcq	%rdx, %r15
	movq	32(%rbx), %rax
	mulq	%r14
	movq	%rax, %r8
	movq	%rdx, %r9
	movabsq	$4503599627370495, %rdx         # imm = 0xFFFFFFFFFFFFF
	andq	%rdx, %rax
	movabsq	$68719492368, %rdx              # imm = 0x1000003D10
	mulq	%rdx
	addq	%rax, %rcx
	adcq	%rdx, %r15
	shrdq	$52, %r9, %r8
	movq	%rcx, %rsi
	movabsq	$4503599627370495, %rdx         # imm = 0xFFFFFFFFFFFFF
	andq	%rdx, %rsi
	movq	%rsi, 24(%rsp)
	shrdq	$52, %r15, %rcx
	xorq	%r15, %r15
	movq	(%rbx), %rax
	mulq	%r14
	addq	%rax, %rcx
	adcq	%rdx, %r15
	movq	8(%rbx), %rax
	mulq	%r13
	addq	%rax, %rcx
	adcq	%rdx, %r15
	movq	16(%rbx), %rax
	mulq	%r12
	addq	%rax, %rcx
	adcq	%rdx, %r15
	movq	24(%rbx), %rax
	mulq	%r11
	addq	%rax, %rcx
	adcq	%rdx, %r15
	movq	32(%rbx), %rax
	mulq	%r10
	addq	%rax, %rcx
	adcq	%rdx, %r15
	movq	%r8, %rax
	movabsq	$68719492368, %rdx              # imm = 0x1000003D10
	mulq	%rdx
	addq	%rax, %rcx
	adcq	%rdx, %r15
	movq	%rcx, %rsi
	movabsq	$4503599627370495, %rdx         # imm = 0xFFFFFFFFFFFFF
	andq	%rdx, %rsi
	shrdq	$52, %r15, %rcx
	xorq	%r15, %r15
	movq	%rsi, %rax
	shrq	$48, %rax
	movq	%rax, 64(%rsp)
	movabsq	$281474976710655, %rax          # imm = 0xFFFFFFFFFFFF
	andq	%rax, %rsi
	movq	%rsi, 16(%rsp)
	movq	(%rbx), %rax
	mulq	%r10
	movq	%rax, %r8
	movq	%rdx, %r9
	movq	8(%rbx), %rax
	mulq	%r14
	addq	%rax, %rcx
	adcq	%rdx, %r15
	movq	16(%rbx), %rax
	mulq	%r13
	addq	%rax, %rcx
	adcq	%rdx, %r15
	movq	24(%rbx), %rax
	mulq	%r12
	addq	%rax, %rcx
	adcq	%rdx, %r15
	movq	32(%rbx), %rax
	mulq	%r11
	addq	%rax, %rcx
	adcq	%rdx, %r15
	movq	%rcx, %rsi
	movabsq	$4503599627370495, %rdx         # imm = 0xFFFFFFFFFFFFF
	andq	%rdx, %rsi
	shrdq	$52, %r15, %rcx
	xorq	%r15, %r15
	shlq	$4, %rsi
	movq	64(%rsp), %rax
	orq	%rax, %rsi
	movabsq	$4294968273, %rax               # imm = 0x1000003D1
	mulq	%rsi
	addq	%rax, %r8
	adcq	%rdx, %r9
	movq	%r8, %rax
	movabsq	$4503599627370495, %rdx         # imm = 0xFFFFFFFFFFFFF
	andq	%rdx, %rax
	movq	%rax, (%rdi)
	shrdq	$52, %r9, %r8
	xorq	%r9, %r9
	movq	(%rbx), %rax
	mulq	%r11
	addq	%rax, %r8
	adcq	%rdx, %r9
	movq	8(%rbx), %rax
	mulq	%r10
	addq	%rax, %r8
	adcq	%rdx, %r9
	movq	16(%rbx), %rax
	mulq	%r14
	addq	%rax, %rcx
	adcq	%rdx, %r15
	movq	24(%rbx), %rax
	mulq	%r13
	addq	%rax, %rcx
	adcq	%rdx, %r15
	movq	32(%rbx), %rax
	mulq	%r12
	addq	%rax, %rcx
	adcq	%rdx, %r15
	movq	%rcx, %rax
	movabsq	$4503599627370495, %rdx         # imm = 0xFFFFFFFFFFFFF
	andq	%rdx, %rax
	movabsq	$68719492368, %rdx              # imm = 0x1000003D10
	mulq	%rdx
	addq	%rax, %r8
	adcq	%rdx, %r9
	shrdq	$52, %r15, %rcx
	xorq	%r15, %r15
	movq	%r8, %rax
	movabsq	$4503599627370495, %rdx         # imm = 0xFFFFFFFFFFFFF
	andq	%rdx, %rax
	movq	%rax, 8(%rdi)
	shrdq	$52, %r9, %r8
	xorq	%r9, %r9
	movq	(%rbx), %rax
	mulq	%r12
	addq	%rax, %r8
	adcq	%rdx, %r9
	movq	8(%rbx), %rax
	mulq	%r11
	addq	%rax, %r8
	adcq	%rdx, %r9
	movq	16(%rbx), %rax
	mulq	%r10
	addq	%rax, %r8
	adcq	%rdx, %r9
	movq	16(%rsp), %rsi
	movq	24(%rsp), %r10
	movq	24(%rbx), %rax
	mulq	%r14
	addq	%rax, %rcx
	adcq	%rdx, %r15
	movq	32(%rbx), %rax
	mulq	%r13
	addq	%rax, %rcx
	adcq	%rdx, %r15
	movq	%rcx, %rax
	movabsq	$4503599627370495, %rdx         # imm = 0xFFFFFFFFFFFFF
	andq	%rdx, %rax
	movabsq	$68719492368, %rdx              # imm = 0x1000003D10
	mulq	%rdx
	addq	%rax, %r8
	adcq	%rdx, %r9
	shrdq	$52, %r15, %rcx
	movq	%r8, %rax
	movabsq	$4503599627370495, %rdx         # imm = 0xFFFFFFFFFFFFF
	andq	%rdx, %rax
	movq	%rax, 16(%rdi)
	shrdq	$52, %r9, %r8
	xorq	%r9, %r9
	addq	%r10, %r8
	movq	%rcx, %rax
	movabsq	$68719492368, %rdx              # imm = 0x1000003D10
	mulq	%rdx
	addq	%rax, %r8
	adcq	%rdx, %r9
	movq	%r8, %rax
	movabsq	$4503599627370495, %rdx         # imm = 0xFFFFFFFFFFFFF
	andq	%rdx, %rax
	movq	%rax, 24(%rdi)
	shrdq	$52, %r9, %r8
	addq	%rsi, %r8
	movq	%r8, 32(%rdi)

	#NO_APP
	leaq	272(%rsp), %rbx
	leaq	144(%rsp), %rdi
	movq	%rdi, %rsi
	#APP
	movq	(%rsi), %r10
	movq	8(%rsi), %r11
	movq	16(%rsi), %r12
	movq	24(%rsi), %r13
	movq	32(%rsi), %r14
	movq	(%rbx), %rax
	mulq	%r13
	movq	%rax, %rcx
	movq	%rdx, %r15
	movq	8(%rbx), %rax
	mulq	%r12
	addq	%rax, %rcx
	adcq	%rdx, %r15
	movq	16(%rbx), %rax
	mulq	%r11
	addq	%rax, %rcx
	adcq	%rdx, %r15
	movq	24(%rbx), %rax
	mulq	%r10
	addq	%rax, %rcx
	adcq	%rdx, %r15
	movq	32(%rbx), %rax
	mulq	%r14
	movq	%rax, %r8
	movq	%rdx, %r9
	movabsq	$4503599627370495, %rdx         # imm = 0xFFFFFFFFFFFFF
	andq	%rdx, %rax
	movabsq	$68719492368, %rdx              # imm = 0x1000003D10
	mulq	%rdx
	addq	%rax, %rcx
	adcq	%rdx, %r15
	shrdq	$52, %r9, %r8
	movq	%rcx, %rsi
	movabsq	$4503599627370495, %rdx         # imm = 0xFFFFFFFFFFFFF
	andq	%rdx, %rsi
	movq	%rsi, 24(%rsp)
	shrdq	$52, %r15, %rcx
	xorq	%r15, %r15
	movq	(%rbx), %rax
	mulq	%r14
	addq	%rax, %rcx
	adcq	%rdx, %r15
	movq	8(%rbx), %rax
	mulq	%r13
	addq	%rax, %rcx
	adcq	%rdx, %r15
	movq	16(%rbx), %rax
	mulq	%r12
	addq	%rax, %rcx
	adcq	%rdx, %r15
	movq	24(%rbx), %rax
	mulq	%r11
	addq	%rax, %rcx
	adcq	%rdx, %r15
	movq	32(%rbx), %rax
	mulq	%r10
	addq	%rax, %rcx
	adcq	%rdx, %r15
	movq	%r8, %rax
	movabsq	$68719492368, %rdx              # imm = 0x1000003D10
	mulq	%rdx
	addq	%rax, %rcx
	adcq	%rdx, %r15
	movq	%rcx, %rsi
	movabsq	$4503599627370495, %rdx         # imm = 0xFFFFFFFFFFFFF
	andq	%rdx, %rsi
	shrdq	$52, %r15, %rcx
	xorq	%r15, %r15
	movq	%rsi, %rax
	shrq	$48, %rax
	movq	%rax, 64(%rsp)
	movabsq	$281474976710655, %rax          # imm = 0xFFFFFFFFFFFF
	andq	%rax, %rsi
	movq	%rsi, 16(%rsp)
	movq	(%rbx), %rax
	mulq	%r10
	movq	%rax, %r8
	movq	%rdx, %r9
	movq	8(%rbx), %rax
	mulq	%r14
	addq	%rax, %rcx
	adcq	%rdx, %r15
	movq	16(%rbx), %rax
	mulq	%r13
	addq	%rax, %rcx
	adcq	%rdx, %r15
	movq	24(%rbx), %rax
	mulq	%r12
	addq	%rax, %rcx
	adcq	%rdx, %r15
	movq	32(%rbx), %rax
	mulq	%r11
	addq	%rax, %rcx
	adcq	%rdx, %r15
	movq	%rcx, %rsi
	movabsq	$4503599627370495, %rdx         # imm = 0xFFFFFFFFFFFFF
	andq	%rdx, %rsi
	shrdq	$52, %r15, %rcx
	xorq	%r15, %r15
	shlq	$4, %rsi
	movq	64(%rsp), %rax
	orq	%rax, %rsi
	movabsq	$4294968273, %rax               # imm = 0x1000003D1
	mulq	%rsi
	addq	%rax, %r8
	adcq	%rdx, %r9
	movq	%r8, %rax
	movabsq	$4503599627370495, %rdx         # imm = 0xFFFFFFFFFFFFF
	andq	%rdx, %rax
	movq	%rax, (%rdi)
	shrdq	$52, %r9, %r8
	xorq	%r9, %r9
	movq	(%rbx), %rax
	mulq	%r11
	addq	%rax, %r8
	adcq	%rdx, %r9
	movq	8(%rbx), %rax
	mulq	%r10
	addq	%rax, %r8
	adcq	%rdx, %r9
	movq	16(%rbx), %rax
	mulq	%r14
	addq	%rax, %rcx
	adcq	%rdx, %r15
	movq	24(%rbx), %rax
	mulq	%r13
	addq	%rax, %rcx
	adcq	%rdx, %r15
	movq	32(%rbx), %rax
	mulq	%r12
	addq	%rax, %rcx
	adcq	%rdx, %r15
	movq	%rcx, %rax
	movabsq	$4503599627370495, %rdx         # imm = 0xFFFFFFFFFFFFF
	andq	%rdx, %rax
	movabsq	$68719492368, %rdx              # imm = 0x1000003D10
	mulq	%rdx
	addq	%rax, %r8
	adcq	%rdx, %r9
	shrdq	$52, %r15, %rcx
	xorq	%r15, %r15
	movq	%r8, %rax
	movabsq	$4503599627370495, %rdx         # imm = 0xFFFFFFFFFFFFF
	andq	%rdx, %rax
	movq	%rax, 8(%rdi)
	shrdq	$52, %r9, %r8
	xorq	%r9, %r9
	movq	(%rbx), %rax
	mulq	%r12
	addq	%rax, %r8
	adcq	%rdx, %r9
	movq	8(%rbx), %rax
	mulq	%r11
	addq	%rax, %r8
	adcq	%rdx, %r9
	movq	16(%rbx), %rax
	mulq	%r10
	addq	%rax, %r8
	adcq	%rdx, %r9
	movq	16(%rsp), %rsi
	movq	24(%rsp), %r10
	movq	24(%rbx), %rax
	mulq	%r14
	addq	%rax, %rcx
	adcq	%rdx, %r15
	movq	32(%rbx), %rax
	mulq	%r13
	addq	%rax, %rcx
	adcq	%rdx, %r15
	movq	%rcx, %rax
	movabsq	$4503599627370495, %rdx         # imm = 0xFFFFFFFFFFFFF
	andq	%rdx, %rax
	movabsq	$68719492368, %rdx              # imm = 0x1000003D10
	mulq	%rdx
	addq	%rax, %r8
	adcq	%rdx, %r9
	shrdq	$52, %r15, %rcx
	movq	%r8, %rax
	movabsq	$4503599627370495, %rdx         # imm = 0xFFFFFFFFFFFFF
	andq	%rdx, %rax
	movq	%rax, 16(%rdi)
	shrdq	$52, %r9, %r8
	xorq	%r9, %r9
	addq	%r10, %r8
	movq	%rcx, %rax
	movabsq	$68719492368, %rdx              # imm = 0x1000003D10
	mulq	%rdx
	addq	%rax, %r8
	adcq	%rdx, %r9
	movq	%r8, %rax
	movabsq	$4503599627370495, %rdx         # imm = 0xFFFFFFFFFFFFF
	andq	%rdx, %rax
	movq	%rax, 24(%rdi)
	shrdq	$52, %r9, %r8
	addq	%rsi, %r8
	movq	%r8, 32(%rdi)

	#NO_APP
	leaq	184(%rsp), %rdi
	leaq	96(%rsp), %rbx
	movq	%rdi, %rsi
	#APP
	movq	(%rsi), %r10
	movq	8(%rsi), %r11
	movq	16(%rsi), %r12
	movq	24(%rsi), %r13
	movq	32(%rsi), %r14
	movq	(%rbx), %rax
	mulq	%r13
	movq	%rax, %rcx
	movq	%rdx, %r15
	movq	8(%rbx), %rax
	mulq	%r12
	addq	%rax, %rcx
	adcq	%rdx, %r15
	movq	16(%rbx), %rax
	mulq	%r11
	addq	%rax, %rcx
	adcq	%rdx, %r15
	movq	24(%rbx), %rax
	mulq	%r10
	addq	%rax, %rcx
	adcq	%rdx, %r15
	movq	32(%rbx), %rax
	mulq	%r14
	movq	%rax, %r8
	movq	%rdx, %r9
	movabsq	$4503599627370495, %rdx         # imm = 0xFFFFFFFFFFFFF
	andq	%rdx, %rax
	movabsq	$68719492368, %rdx              # imm = 0x1000003D10
	mulq	%rdx
	addq	%rax, %rcx
	adcq	%rdx, %r15
	shrdq	$52, %r9, %r8
	movq	%rcx, %rsi
	movabsq	$4503599627370495, %rdx         # imm = 0xFFFFFFFFFFFFF
	andq	%rdx, %rsi
	movq	%rsi, 24(%rsp)
	shrdq	$52, %r15, %rcx
	xorq	%r15, %r15
	movq	(%rbx), %rax
	mulq	%r14
	addq	%rax, %rcx
	adcq	%rdx, %r15
	movq	8(%rbx), %rax
	mulq	%r13
	addq	%rax, %rcx
	adcq	%rdx, %r15
	movq	16(%rbx), %rax
	mulq	%r12
	addq	%rax, %rcx
	adcq	%rdx, %r15
	movq	24(%rbx), %rax
	mulq	%r11
	addq	%rax, %rcx
	adcq	%rdx, %r15
	movq	32(%rbx), %rax
	mulq	%r10
	addq	%rax, %rcx
	adcq	%rdx, %r15
	movq	%r8, %rax
	movabsq	$68719492368, %rdx              # imm = 0x1000003D10
	mulq	%rdx
	addq	%rax, %rcx
	adcq	%rdx, %r15
	movq	%rcx, %rsi
	movabsq	$4503599627370495, %rdx         # imm = 0xFFFFFFFFFFFFF
	andq	%rdx, %rsi
	shrdq	$52, %r15, %rcx
	xorq	%r15, %r15
	movq	%rsi, %rax
	shrq	$48, %rax
	movq	%rax, 64(%rsp)
	movabsq	$281474976710655, %rax          # imm = 0xFFFFFFFFFFFF
	andq	%rax, %rsi
	movq	%rsi, 16(%rsp)
	movq	(%rbx), %rax
	mulq	%r10
	movq	%rax, %r8
	movq	%rdx, %r9
	movq	8(%rbx), %rax
	mulq	%r14
	addq	%rax, %rcx
	adcq	%rdx, %r15
	movq	16(%rbx), %rax
	mulq	%r13
	addq	%rax, %rcx
	adcq	%rdx, %r15
	movq	24(%rbx), %rax
	mulq	%r12
	addq	%rax, %rcx
	adcq	%rdx, %r15
	movq	32(%rbx), %rax
	mulq	%r11
	addq	%rax, %rcx
	adcq	%rdx, %r15
	movq	%rcx, %rsi
	movabsq	$4503599627370495, %rdx         # imm = 0xFFFFFFFFFFFFF
	andq	%rdx, %rsi
	shrdq	$52, %r15, %rcx
	xorq	%r15, %r15
	shlq	$4, %rsi
	movq	64(%rsp), %rax
	orq	%rax, %rsi
	movabsq	$4294968273, %rax               # imm = 0x1000003D1
	mulq	%rsi
	addq	%rax, %r8
	adcq	%rdx, %r9
	movq	%r8, %rax
	movabsq	$4503599627370495, %rdx         # imm = 0xFFFFFFFFFFFFF
	andq	%rdx, %rax
	movq	%rax, (%rdi)
	shrdq	$52, %r9, %r8
	xorq	%r9, %r9
	movq	(%rbx), %rax
	mulq	%r11
	addq	%rax, %r8
	adcq	%rdx, %r9
	movq	8(%rbx), %rax
	mulq	%r10
	addq	%rax, %r8
	adcq	%rdx, %r9
	movq	16(%rbx), %rax
	mulq	%r14
	addq	%rax, %rcx
	adcq	%rdx, %r15
	movq	24(%rbx), %rax
	mulq	%r13
	addq	%rax, %rcx
	adcq	%rdx, %r15
	movq	32(%rbx), %rax
	mulq	%r12
	addq	%rax, %rcx
	adcq	%rdx, %r15
	movq	%rcx, %rax
	movabsq	$4503599627370495, %rdx         # imm = 0xFFFFFFFFFFFFF
	andq	%rdx, %rax
	movabsq	$68719492368, %rdx              # imm = 0x1000003D10
	mulq	%rdx
	addq	%rax, %r8
	adcq	%rdx, %r9
	shrdq	$52, %r15, %rcx
	xorq	%r15, %r15
	movq	%r8, %rax
	movabsq	$4503599627370495, %rdx         # imm = 0xFFFFFFFFFFFFF
	andq	%rdx, %rax
	movq	%rax, 8(%rdi)
	shrdq	$52, %r9, %r8
	xorq	%r9, %r9
	movq	(%rbx), %rax
	mulq	%r12
	addq	%rax, %r8
	adcq	%rdx, %r9
	movq	8(%rbx), %rax
	mulq	%r11
	addq	%rax, %r8
	adcq	%rdx, %r9
	movq	16(%rbx), %rax
	mulq	%r10
	addq	%rax, %r8
	adcq	%rdx, %r9
	movq	16(%rsp), %rsi
	movq	24(%rsp), %r10
	movq	24(%rbx), %rax
	mulq	%r14
	addq	%rax, %rcx
	adcq	%rdx, %r15
	movq	32(%rbx), %rax
	mulq	%r13
	addq	%rax, %rcx
	adcq	%rdx, %r15
	movq	%rcx, %rax
	movabsq	$4503599627370495, %rdx         # imm = 0xFFFFFFFFFFFFF
	andq	%rdx, %rax
	movabsq	$68719492368, %rdx              # imm = 0x1000003D10
	mulq	%rdx
	addq	%rax, %r8
	adcq	%rdx, %r9
	shrdq	$52, %r15, %rcx
	movq	%r8, %rax
	movabsq	$4503599627370495, %rdx         # imm = 0xFFFFFFFFFFFFF
	andq	%rdx, %rax
	movq	%rax, 16(%rdi)
	shrdq	$52, %r9, %r8
	xorq	%r9, %r9
	addq	%r10, %r8
	movq	%rcx, %rax
	movabsq	$68719492368, %rdx              # imm = 0x1000003D10
	mulq	%rdx
	addq	%rax, %r8
	adcq	%rdx, %r9
	movq	%r8, %rax
	movabsq	$4503599627370495, %rdx         # imm = 0xFFFFFFFFFFFFF
	andq	%rdx, %rax
	movq	%rax, 24(%rdi)
	shrdq	$52, %r9, %r8
	addq	%rsi, %r8
	movq	%r8, 32(%rdi)

	#NO_APP
	movq	$1, 224(%rsp)
	xorps	%xmm0, %xmm0
	movups	%xmm0, 232(%rsp)
	movups	%xmm0, 248(%rsp)
	movq	176(%rsp), %r12
	movq	%r12, %rsi
	shrq	$48, %rsi
	movabsq	$4294968273, %rax               # imm = 0x1000003D1
	imulq	%rax, %rsi
	movq	%rax, %rcx
	addq	144(%rsp), %rsi
	movq	%rsi, %rbx
	shrq	$52, %rbx
	addq	152(%rsp), %rbx
	movq	%rbx, %rax
	shrq	$52, %rax
	addq	160(%rsp), %rax
	movq	216(%rsp), %r8
	movq	%rax, %rdi
	shrq	$52, %rdi
	addq	168(%rsp), %rdi
	movq	%r8, %r15
	shrq	$48, %r15
	imulq	%rcx, %r15
	addq	184(%rsp), %r15
	movq	%r15, %r9
	shrq	$52, %r9
	addq	192(%rsp), %r9
	movq	%r9, %rdx
	shrq	$52, %rdx
	addq	200(%rsp), %rdx
	movq	%rdx, %r13
	shrq	$52, %r13
	addq	208(%rsp), %r13
	movabsq	$281474976710655, %r10          # imm = 0xFFFFFFFFFFFF
	andq	%r10, %r12
	movabsq	$4503599627370495, %r11         # imm = 0xFFFFFFFFFFFFF
	andq	%r11, %rsi
	andq	%r11, %rax
	movq	%rax, %rcx
	andq	%rbx, %rcx
	andq	%r11, %rbx
	movq	%rdi, %rbp
	shrq	$52, %rbp
	addq	%r12, %rbp
	andq	%rdi, %rcx
	andq	%r11, %rdi
	movq	%rbp, %r14
	shrq	$48, %r14
	movq	%rbp, %r12
	xorq	%r10, %r12
	xorq	%r11, %rcx
	orq	%r12, %rcx
	sete	%cl
	movabsq	$4503595332402222, %r12         # imm = 0xFFFFEFFFFFC2E
	cmpq	%r12, %rsi
	seta	%r12b
	andb	%cl, %r12b
	movzbl	%r12b, %r12d
	orq	%r14, %r12
	movabsq	$4294968273, %rcx               # imm = 0x1000003D1
	imulq	%rcx, %r12
	addq	%rsi, %r12
	movq	%r12, %rsi
	shrq	$52, %rsi
	addq	%rbx, %rsi
	movq	%rsi, %rbx
	shrq	$52, %rbx
	addq	%rax, %rbx
	movq	%rbx, %rax
	shrq	$52, %rax
	addq	%rdi, %rax
	movq	%rax, %rdi
	shrq	$52, %rdi
	addq	%rbp, %rdi
	andq	%r9, %rdx
	andq	%r11, %r12
	andq	%r10, %r8
	andq	%r13, %rdx
	movq	%r13, %r14
	shrq	$52, %r14
	addq	%r8, %r14
	movq	%r15, %rbp
	andq	%r11, %rbp
	notq	%rdx
	andq	%r11, %rdx
	xorq	%r14, %r10
	orq	%r10, %rdx
	sete	%r13b
	movabsq	$4503595332402222, %rcx         # imm = 0xFFFFEFFFFFC2E
	cmpq	%rcx, %rbp
	seta	%bpl
	shlq	$16, %rdi
	movq	%rax, %rdx
	shrq	$36, %rdx
	movzwl	%dx, %edx
	orq	%rdi, %rdx
	bswapq	%rdx
	movq	%rdx, 96(%rsp)
	shlq	$28, %rax
	movq	%rbx, %rdx
	shrq	$24, %rdx
	andl	$268435455, %edx                # imm = 0xFFFFFFF
	orq	%rax, %rdx
	bswapq	%rdx
	movq	%rdx, 104(%rsp)
	movq	%rsi, %rax
	shrq	$12, %rax
	movabsq	$1099511627775, %rdx            # imm = 0xFFFFFFFFFF
	andq	%rax, %rdx
	shlq	$40, %rbx
	orq	%rbx, %rdx
	bswapq	%rdx
	movq	%rdx, 112(%rsp)
	shlq	$52, %rsi
	orq	%r12, %rsi
	bswapq	%rsi
	movq	%rsi, 120(%rsp)
	leaq	96(%rsp), %rsi
	leaq	12(%rsp), %rdx
	movq	(%rsp), %rbx                    # 8-byte Reload
	movq	%rbx, %rdi
	callq	secp256k1_scalar_set_b32
	movdqu	(%rbx), %xmm0
	movdqu	16(%rbx), %xmm1
	por	%xmm0, %xmm1
	pcmpeqb	.LCPI8_0(%rip), %xmm1
	pmovmskb	%xmm1, %ecx
	xorl	%eax, %eax
	cmpl	$65535, %ecx                    # imm = 0xFFFF
	je	.LBB8_7
# %bb.1:
	movq	56(%rsp), %rax                  # 8-byte Reload
	testq	%rax, %rax
	je	.LBB8_3
# %bb.2:
	movq	%rax, %rdx
	shrq	$48, %r14
	andb	%r13b, %bpl
	movzbl	%bpl, %eax
	orq	%r14, %rax
	movabsq	$4294968273, %rcx               # imm = 0x1000003D1
	imulq	%rcx, %rax
	addq	%r15, %rax
	xorl	%ecx, %ecx
	cmpl	$0, 12(%rsp)
	setne	%cl
	andl	$1, %eax
	leal	(%rax,%rcx,2), %eax
	movl	%eax, (%rdx)
.LBB8_3:
	leaq	272(%rsp), %rsi
	movq	(%rsp), %rdi                    # 8-byte Reload
	movq	72(%rsp), %rdx                  # 8-byte Reload
	#APP
	movq	(%rdi), %r15
	movq	8(%rdi), %rbx
	movq	16(%rdi), %rcx
	movq	(%rdx), %r11
	movq	8(%rdx), %r12
	movq	16(%rdx), %r13
	movq	24(%rdx), %r14
	movq	%r15, %rax
	mulq	%r11
	movq	%rax, (%rsi)
	movq	%rdx, %r8
	xorq	%r9, %r9
	xorq	%r10, %r10
	movq	%r15, %rax
	mulq	%r12
	addq	%rax, %r8
	adcq	%rdx, %r9
	adcq	$0, %r10
	movq	%rbx, %rax
	mulq	%r11
	addq	%rax, %r8
	adcq	%rdx, %r9
	adcq	$0, %r10
	movq	%r8, 8(%rsi)
	xorq	%r8, %r8
	movq	%r15, %rax
	mulq	%r13
	addq	%rax, %r9
	adcq	%rdx, %r10
	adcq	$0, %r8
	movq	%rbx, %rax
	mulq	%r12
	addq	%rax, %r9
	adcq	%rdx, %r10
	adcq	$0, %r8
	movq	%rcx, %rax
	mulq	%r11
	addq	%rax, %r9
	adcq	%rdx, %r10
	adcq	$0, %r8
	movq	%r9, 16(%rsi)
	xorq	%r9, %r9
	movq	%r15, %rax
	mulq	%r14
	addq	%rax, %r10
	adcq	%rdx, %r8
	adcq	$0, %r9
	movq	24(%rdi), %r15
	movq	%rbx, %rax
	mulq	%r13
	addq	%rax, %r10
	adcq	%rdx, %r8
	adcq	$0, %r9
	movq	%rcx, %rax
	mulq	%r12
	addq	%rax, %r10
	adcq	%rdx, %r8
	adcq	$0, %r9
	movq	%r15, %rax
	mulq	%r11
	addq	%rax, %r10
	adcq	%rdx, %r8
	adcq	$0, %r9
	movq	%r10, 24(%rsi)
	xorq	%r10, %r10
	movq	%rbx, %rax
	mulq	%r14
	addq	%rax, %r8
	adcq	%rdx, %r9
	adcq	$0, %r10
	movq	%rcx, %rax
	mulq	%r13
	addq	%rax, %r8
	adcq	%rdx, %r9
	adcq	$0, %r10
	movq	%r15, %rax
	mulq	%r12
	addq	%rax, %r8
	adcq	%rdx, %r9
	adcq	$0, %r10
	movq	%r8, 32(%rsi)
	xorq	%r8, %r8
	movq	%rcx, %rax
	mulq	%r14
	addq	%rax, %r9
	adcq	%rdx, %r10
	adcq	$0, %r8
	movq	%r15, %rax
	mulq	%r13
	addq	%rax, %r9
	adcq	%rdx, %r10
	adcq	$0, %r8
	movq	%r9, 40(%rsi)
	movq	%r15, %rax
	mulq	%r14
	addq	%rax, %r10
	adcq	%rdx, %r8
	movq	%r10, 48(%rsi)
	movq	%r8, 56(%rsi)

	#NO_APP
	leaq	24(%rsp), %r14
	movq	%r14, %rdi
	callq	secp256k1_scalar_reduce_512
	movq	80(%rsp), %rcx                  # 8-byte Reload
	movq	(%rcx), %r9
	addq	24(%rsp), %r9
	movq	32(%rsp), %r10
	adcq	$0, %r10
	movq	24(%rcx), %rax
	setb	%bl
	addq	8(%rcx), %r10
	movzbl	%bl, %esi
	adcq	40(%rsp), %rsi
	setb	%bl
	xorl	%edi, %edi
	addq	48(%rsp), %rax
	setb	%dil
	addq	16(%rcx), %rsi
	movzbl	%bl, %ebp
	adcq	%rbp, %rax
	setb	%r8b
	cmpq	$-1, %rax
	setne	%bl
	cmpq	$-2, %rsi
	setb	%cl
	orb	%bl, %cl
	movzbl	%cl, %ebx
	xorl	%ebp, %ebp
	cmpq	$-1, %rsi
	sete	%bpl
	movl	%ebx, %ecx
	notl	%ecx
	andl	%ebp, %ecx
	movabsq	$-4994812053365940165, %rdx     # imm = 0xBAAEDCE6AF48A03B
	xorl	%ebp, %ebp
	cmpq	%rdx, %r10
	seta	%bpl
	setb	%dl
	orb	%dl, %bl
	movzbl	%bl, %edx
	notl	%edx
	andl	%edx, %ebp
	orl	%ecx, %ebp
	movabsq	$-4624529908474429120, %rcx     # imm = 0xBFD25E8CD0364140
	xorl	%ebx, %ebx
	cmpq	%rcx, %r9
	seta	%bl
	andl	%edx, %ebx
	orl	%ebp, %ebx
	addb	$255, %r8b
	adcl	%ebx, %edi
	movabsq	$4624529908474429119, %rcx      # imm = 0x402DA1732FC9BEBF
	imulq	%rdi, %rcx
	movabsq	$4994812053365940164, %rdx      # imm = 0x4551231950B75FC4
	imulq	%rdi, %rdx
	addq	%r9, %rcx
	movq	%rcx, 24(%rsp)
	adcq	%r10, %rdx
	movq	%rdx, 32(%rsp)
	adcq	%rdi, %rsi
	movq	%rsi, 40(%rsp)
	adcq	$0, %rax
	movq	%rax, 48(%rsp)
	movq	(%rsp), %rax                    # 8-byte Reload
	leaq	32(%rax), %rbp
	movq	%rbp, %rdi
	movq	88(%rsp), %rsi                  # 8-byte Reload
	callq	secp256k1_scalar_inverse
	leaq	272(%rsp), %rsi
	movq	%rbp, %rdi
	movq	%r14, %rdx
	#APP
	movq	(%rdi), %r15
	movq	8(%rdi), %rbx
	movq	16(%rdi), %rcx
	movq	(%rdx), %r11
	movq	8(%rdx), %r12
	movq	16(%rdx), %r13
	movq	24(%rdx), %r14
	movq	%r15, %rax
	mulq	%r11
	movq	%rax, (%rsi)
	movq	%rdx, %r8
	xorq	%r9, %r9
	xorq	%r10, %r10
	movq	%r15, %rax
	mulq	%r12
	addq	%rax, %r8
	adcq	%rdx, %r9
	adcq	$0, %r10
	movq	%rbx, %rax
	mulq	%r11
	addq	%rax, %r8
	adcq	%rdx, %r9
	adcq	$0, %r10
	movq	%r8, 8(%rsi)
	xorq	%r8, %r8
	movq	%r15, %rax
	mulq	%r13
	addq	%rax, %r9
	adcq	%rdx, %r10
	adcq	$0, %r8
	movq	%rbx, %rax
	mulq	%r12
	addq	%rax, %r9
	adcq	%rdx, %r10
	adcq	$0, %r8
	movq	%rcx, %rax
	mulq	%r11
	addq	%rax, %r9
	adcq	%rdx, %r10
	adcq	$0, %r8
	movq	%r9, 16(%rsi)
	xorq	%r9, %r9
	movq	%r15, %rax
	mulq	%r14
	addq	%rax, %r10
	adcq	%rdx, %r8
	adcq	$0, %r9
	movq	24(%rdi), %r15
	movq	%rbx, %rax
	mulq	%r13
	addq	%rax, %r10
	adcq	%rdx, %r8
	adcq	$0, %r9
	movq	%rcx, %rax
	mulq	%r12
	addq	%rax, %r10
	adcq	%rdx, %r8
	adcq	$0, %r9
	movq	%r15, %rax
	mulq	%r11
	addq	%rax, %r10
	adcq	%rdx, %r8
	adcq	$0, %r9
	movq	%r10, 24(%rsi)
	xorq	%r10, %r10
	movq	%rbx, %rax
	mulq	%r14
	addq	%rax, %r8
	adcq	%rdx, %r9
	adcq	$0, %r10
	movq	%rcx, %rax
	mulq	%r13
	addq	%rax, %r8
	adcq	%rdx, %r9
	adcq	$0, %r10
	movq	%r15, %rax
	mulq	%r12
	addq	%rax, %r8
	adcq	%rdx, %r9
	adcq	$0, %r10
	movq	%r8, 32(%rsi)
	xorq	%r8, %r8
	movq	%rcx, %rax
	mulq	%r14
	addq	%rax, %r9
	adcq	%rdx, %r10
	adcq	$0, %r8
	movq	%r15, %rax
	mulq	%r13
	addq	%rax, %r9
	adcq	%rdx, %r10
	adcq	$0, %r8
	movq	%r9, 40(%rsi)
	movq	%r15, %rax
	mulq	%r14
	addq	%rax, %r10
	adcq	%rdx, %r8
	movq	%r10, 48(%rsi)
	movq	%r8, 56(%rsi)

	#NO_APP
	movq	%rbp, %rdi
	callq	secp256k1_scalar_reduce_512
	movq	(%rsp), %rax                    # 8-byte Reload
	movq	32(%rax), %r8
	movq	40(%rax), %r10
	movq	%r10, %rdi
	orq	%r8, %rdi
	movq	48(%rax), %r11
	orq	%r11, %rdi
	movq	56(%rax), %rdx
	orq	%rdx, %rdi
	movl	$0, %eax
	je	.LBB8_7
# %bb.4:
	movabsq	$9223372036854775807, %rdi      # imm = 0x7FFFFFFFFFFFFFFF
	xorl	%ebp, %ebp
	cmpq	%rdi, %rdx
	setb	%bpl
	movq	%rdx, %rdi
	shrq	$63, %rdi
	xorl	%ebx, %ebx
	cmpq	$-1, %r11
	setne	%bl
	movl	%edi, %esi
	notl	%esi
	andl	%esi, %ebx
	orl	%ebp, %ebx
	movabsq	$6725966010171805725, %r9       # imm = 0x5D576E7357A4501D
	xorl	%ebp, %ebp
	xorl	%ecx, %ecx
	cmpq	%r9, %r10
	setb	%bpl
	seta	%cl
	andl	%esi, %ebp
	orl	%ebx, %ebp
	notl	%ebp
	andl	%ebp, %ecx
	orl	%edi, %ecx
	movabsq	$-2312264954237214560, %rsi     # imm = 0xDFE92F46681B20A0
	xorl	%edi, %edi
	cmpq	%rsi, %r8
	seta	%dil
	andl	%ebp, %edi
	movl	$1, %eax
	orl	%ecx, %edi
	je	.LBB8_7
# %bb.5:
	notq	%r8
	movabsq	$-4624529908474429118, %rcx     # imm = 0xBFD25E8CD0364142
	addq	%r8, %rcx
	notq	%r10
	adcq	$0, %r10
	setb	%bl
	movzbl	%bl, %esi
	movabsq	$-4994812053365940165, %rdi     # imm = 0xBAAEDCE6AF48A03B
	addq	%rdi, %r10
	notq	%r11
	adcq	%rsi, %r11
	setb	%bl
	movzbl	%bl, %esi
	addq	$-2, %r11
	notq	%rdx
	adcq	%rsi, %rdx
	addq	$-1, %rdx
	movq	(%rsp), %rsi                    # 8-byte Reload
	movq	%rcx, 32(%rsi)
	movq	%r10, 40(%rsi)
	movq	%r11, 48(%rsi)
	movq	%rdx, 56(%rsi)
	movq	56(%rsp), %rcx                  # 8-byte Reload
	testq	%rcx, %rcx
	je	.LBB8_7
# %bb.6:
	xorb	$1, (%rcx)
.LBB8_7:
	addq	$344, %rsp                      # imm = 0x158
	.cfi_def_cfa_offset 56
	popq	%rbx
	.cfi_def_cfa_offset 48
	popq	%r12
	.cfi_def_cfa_offset 40
	popq	%r13
	.cfi_def_cfa_offset 32
	popq	%r14
	.cfi_def_cfa_offset 24
	popq	%r15
	.cfi_def_cfa_offset 16
	popq	%rbp
	.cfi_def_cfa_offset 8
	retq
.Lfunc_end8:
	.size	secp256k1_ecdsa_sig_sign, .Lfunc_end8-secp256k1_ecdsa_sig_sign
	.cfi_endproc
                                        # -- End function
	.globl	secp256k1_ecdsa_sign_compact    # -- Begin function secp256k1_ecdsa_sign_compact
	.p2align	4, 0x90
	.type	secp256k1_ecdsa_sign_compact,@function
secp256k1_ecdsa_sign_compact:           # @secp256k1_ecdsa_sign_compact
	.cfi_startproc
# %bb.0:
	pushq	%rbp
	.cfi_def_cfa_offset 16
	pushq	%r15
	.cfi_def_cfa_offset 24
	pushq	%r14
	.cfi_def_cfa_offset 32
	pushq	%r13
	.cfi_def_cfa_offset 40
	pushq	%r12
	.cfi_def_cfa_offset 48
	pushq	%rbx
	.cfi_def_cfa_offset 56
	subq	$232, %rsp
	.cfi_def_cfa_offset 288
	.cfi_offset %rbx, -56
	.cfi_offset %r12, -48
	.cfi_offset %r13, -40
	.cfi_offset %r14, -32
	.cfi_offset %r15, -24
	.cfi_offset %rbp, -16
	movq	%r9, 24(%rsp)                   # 8-byte Spill
	movq	%rsi, 8(%rsp)                   # 8-byte Spill
	movl	$0, 4(%rsp)
	testq	%rdi, %rdi
	je	.LBB9_1
# %bb.3:
	movq	%rdi, %rbp
	cmpq	$0, 8(%rdi)
	je	.LBB9_4
# %bb.5:
	cmpq	$0, 8(%rsp)                     # 8-byte Folded Reload
	je	.LBB9_6
# %bb.7:
	movq	%rdx, %rbx
	testq	%rdx, %rdx
	je	.LBB9_8
# %bb.9:
	movq	%rcx, %r12
	testq	%rcx, %rcx
	je	.LBB9_10
# %bb.11:
	testq	%r8, %r8
	leaq	nonce_function_rfc6979(%rip), %r13
	cmovneq	%r8, %r13
	leaq	160(%rsp), %rdi
	leaq	4(%rsp), %rdx
	movq	%r12, %rsi
	callq	secp256k1_scalar_set_b32
	cmpl	$0, 4(%rsp)
	je	.LBB9_12
.LBB9_22:                               # %.thread47
	pxor	%xmm0, %xmm0
	movdqu	%xmm0, 48(%rbx)
	movdqu	%xmm0, 32(%rbx)
	movdqu	%xmm0, 16(%rbx)
	movdqu	%xmm0, (%rbx)
	xorl	%eax, %eax
.LBB9_23:
                                        # kill: def $eax killed $eax killed $rax
	addq	$232, %rsp
	.cfi_def_cfa_offset 56
	popq	%rbx
	.cfi_def_cfa_offset 48
	popq	%r12
	.cfi_def_cfa_offset 40
	popq	%r13
	.cfi_def_cfa_offset 32
	popq	%r14
	.cfi_def_cfa_offset 24
	popq	%r15
	.cfi_def_cfa_offset 16
	popq	%rbp
	.cfi_def_cfa_offset 8
	retq
.LBB9_12:
	.cfi_def_cfa_offset 288
	movdqa	160(%rsp), %xmm0
	por	176(%rsp), %xmm0
	pxor	%xmm1, %xmm1
	pcmpeqb	%xmm0, %xmm1
	pmovmskb	%xmm1, %eax
	cmpl	$65535, %eax                    # imm = 0xFFFF
	je	.LBB9_22
# %bb.13:
	movq	%rbp, 16(%rsp)                  # 8-byte Spill
	leaq	200(%rsp), %rdi
	movq	8(%rsp), %rbp                   # 8-byte Reload
	movq	%rbp, %rsi
	xorl	%edx, %edx
	callq	secp256k1_scalar_set_b32
	leaq	96(%rsp), %rdi
	movq	%rbp, %rsi
	movq	%r12, %rdx
	xorl	%ecx, %ecx
	movq	24(%rsp), %r8                   # 8-byte Reload
	callq	*%r13
	testl	%eax, %eax
	je	.LBB9_19
# %bb.14:                               # %.lr.ph.preheader
	movl	%eax, %ebp
	addq	$8, 16(%rsp)                    # 8-byte Folded Spill
	movl	$1, %r14d
	leaq	96(%rsp), %r15
	jmp	.LBB9_15
	.p2align	4, 0x90
.LBB9_18:                               #   in Loop: Header=BB9_15 Depth=1
	movq	%r15, %rdi
	movq	8(%rsp), %rsi                   # 8-byte Reload
	movq	%r12, %rdx
	movl	%r14d, %ecx
	movq	24(%rsp), %r8                   # 8-byte Reload
	callq	*%r13
	movl	%eax, %ebp
	addl	$1, %r14d
	testl	%eax, %eax
	je	.LBB9_19
.LBB9_15:                               # %.lr.ph
                                        # =>This Inner Loop Header: Depth=1
	leaq	128(%rsp), %rdi
	movq	%r15, %rsi
	leaq	4(%rsp), %rdx
	callq	secp256k1_scalar_set_b32
	pxor	%xmm1, %xmm1
	movdqa	%xmm1, 112(%rsp)
	movdqa	128(%rsp), %xmm0
	por	144(%rsp), %xmm0
	movdqa	%xmm1, 96(%rsp)
	pcmpeqb	%xmm1, %xmm0
	pmovmskb	%xmm0, %eax
	cmpl	$65535, %eax                    # imm = 0xFFFF
	je	.LBB9_18
# %bb.16:                               # %.lr.ph
                                        #   in Loop: Header=BB9_15 Depth=1
	cmpl	$0, 4(%rsp)
	jne	.LBB9_18
# %bb.17:                               #   in Loop: Header=BB9_15 Depth=1
	movq	16(%rsp), %rdi                  # 8-byte Reload
	leaq	32(%rsp), %rsi
	leaq	160(%rsp), %rdx
	leaq	200(%rsp), %rcx
	leaq	128(%rsp), %r8
	movq	288(%rsp), %r9
	callq	secp256k1_ecdsa_sig_sign
	testl	%eax, %eax
	je	.LBB9_18
# %bb.20:
	movq	56(%rsp), %rax
	bswapq	%rax
	movq	%rax, (%rbx)
	movq	48(%rsp), %rax
	bswapq	%rax
	movq	%rax, 8(%rbx)
	movq	40(%rsp), %rax
	bswapq	%rax
	movq	%rax, 16(%rbx)
	movq	32(%rsp), %rax
	bswapq	%rax
	movq	%rax, 24(%rbx)
	movq	88(%rsp), %rax
	bswapq	%rax
	movq	%rax, 32(%rbx)
	movq	80(%rsp), %rax
	bswapq	%rax
	movq	%rax, 40(%rbx)
	movq	72(%rsp), %rax
	bswapq	%rax
	movq	%rax, 48(%rbx)
	movq	64(%rsp), %rax
	bswapq	%rax
	movq	%rax, 56(%rbx)
	movl	%ebp, %eax
	testl	%eax, %eax
	jne	.LBB9_23
	jmp	.LBB9_22
.LBB9_19:                               # %.thread45
	xorl	%eax, %eax
	testl	%eax, %eax
	jne	.LBB9_23
	jmp	.LBB9_22
.LBB9_1:
	movq	stderr@GOTPCREL(%rip), %rax
	movq	(%rax), %rdi
	leaq	.L.str(%rip), %rsi
	leaq	.L.str.1(%rip), %rdx
	leaq	.L.str.2(%rip), %r8
	movl	$156, %ecx
	jmp	.LBB9_2
.LBB9_4:
	movq	stderr@GOTPCREL(%rip), %rax
	movq	(%rax), %rdi
	leaq	.L.str(%rip), %rsi
	leaq	.L.str.1(%rip), %rdx
	leaq	.L.str.7(%rip), %r8
	movl	$157, %ecx
	jmp	.LBB9_2
.LBB9_6:
	movq	stderr@GOTPCREL(%rip), %rax
	movq	(%rax), %rdi
	leaq	.L.str(%rip), %rsi
	leaq	.L.str.1(%rip), %rdx
	leaq	.L.str.4(%rip), %r8
	movl	$158, %ecx
	jmp	.LBB9_2
.LBB9_8:
	movq	stderr@GOTPCREL(%rip), %rax
	movq	(%rax), %rdi
	leaq	.L.str(%rip), %rsi
	leaq	.L.str.1(%rip), %rdx
	leaq	.L.str.11(%rip), %r8
	movl	$159, %ecx
	jmp	.LBB9_2
.LBB9_10:
	movq	stderr@GOTPCREL(%rip), %rax
	movq	(%rax), %rdi
	leaq	.L.str(%rip), %rsi
	leaq	.L.str.1(%rip), %rdx
	leaq	.L.str.10(%rip), %r8
	movl	$160, %ecx
.LBB9_2:
	xorl	%eax, %eax
	callq	fprintf@PLT
	callq	abort@PLT
.Lfunc_end9:
	.size	secp256k1_ecdsa_sign_compact, .Lfunc_end9-secp256k1_ecdsa_sign_compact
	.cfi_endproc
                                        # -- End function
	.globl	secp256k1_ecdsa_recover_compact # -- Begin function secp256k1_ecdsa_recover_compact
	.p2align	4, 0x90
	.type	secp256k1_ecdsa_recover_compact,@function
secp256k1_ecdsa_recover_compact:        # @secp256k1_ecdsa_recover_compact
	.cfi_startproc
# %bb.0:
	pushq	%rbp
	.cfi_def_cfa_offset 16
	pushq	%r15
	.cfi_def_cfa_offset 24
	pushq	%r14
	.cfi_def_cfa_offset 32
	pushq	%r13
	.cfi_def_cfa_offset 40
	pushq	%r12
	.cfi_def_cfa_offset 48
	pushq	%rbx
	.cfi_def_cfa_offset 56
	subq	$824, %rsp                      # imm = 0x338
	.cfi_def_cfa_offset 880
	.cfi_offset %rbx, -56
	.cfi_offset %r12, -48
	.cfi_offset %r13, -40
	.cfi_offset %r14, -32
	.cfi_offset %r15, -24
	.cfi_offset %rbp, -16
	movl	$0, 12(%rsp)
	testq	%rdi, %rdi
	je	.LBB10_1
# %bb.3:
	cmpq	$0, (%rdi)
	je	.LBB10_4
# %bb.5:
	movq	%rsi, %r14
	testq	%rsi, %rsi
	je	.LBB10_6
# %bb.7:
	movq	%rdx, %rbp
	testq	%rdx, %rdx
	je	.LBB10_8
# %bb.9:
	testq	%rcx, %rcx
	je	.LBB10_10
# %bb.11:
	movq	%r8, %rbx
	testq	%r8, %r8
	je	.LBB10_12
# %bb.13:
	movq	%rdi, 136(%rsp)                 # 8-byte Spill
	movq	%rcx, 128(%rsp)                 # 8-byte Spill
	movl	880(%rsp), %r12d
	cmpl	$4, %r12d
	jae	.LBB10_14
# %bb.15:
	movl	%r9d, %r13d
	leaq	144(%rsp), %rdi
	leaq	12(%rsp), %rdx
	movq	%rbp, %rsi
	callq	secp256k1_scalar_set_b32
	xorl	%r15d, %r15d
	cmpl	$0, 12(%rsp)
	jne	.LBB10_33
# %bb.16:
	leaq	176(%rsp), %rdi
	addq	$32, %rbp
	leaq	12(%rsp), %rdx
	movq	%rbp, %rsi
	callq	secp256k1_scalar_set_b32
	cmpl	$0, 12(%rsp)
	je	.LBB10_17
.LBB10_33:
	movl	%r15d, %eax
	addq	$824, %rsp                      # imm = 0x338
	.cfi_def_cfa_offset 56
	popq	%rbx
	.cfi_def_cfa_offset 48
	popq	%r12
	.cfi_def_cfa_offset 40
	popq	%r13
	.cfi_def_cfa_offset 32
	popq	%r14
	.cfi_def_cfa_offset 24
	popq	%r15
	.cfi_def_cfa_offset 16
	popq	%rbp
	.cfi_def_cfa_offset 8
	retq
.LBB10_17:
	.cfi_def_cfa_offset 880
	movq	%rbx, 120(%rsp)                 # 8-byte Spill
	xorl	%r15d, %r15d
	leaq	688(%rsp), %rdi
	movq	%r14, %rsi
	xorl	%edx, %edx
	callq	secp256k1_scalar_set_b32
	movq	144(%rsp), %rdi
	movq	152(%rsp), %rbp
	movq	%rbp, %rcx
	orq	%rdi, %rcx
	movq	160(%rsp), %rbx
	orq	%rbx, %rcx
	movq	168(%rsp), %rax
	orq	%rax, %rcx
	je	.LBB10_33
# %bb.18:
	movdqu	176(%rsp), %xmm0
	movdqu	192(%rsp), %xmm1
	por	%xmm0, %xmm1
	pxor	%xmm0, %xmm0
	pcmpeqb	%xmm1, %xmm0
	pmovmskb	%xmm0, %ecx
	cmpl	$65535, %ecx                    # imm = 0xFFFF
	je	.LBB10_33
# %bb.19:                               # %secp256k1_fe_set_b32.exit.i
	movabsq	$4503599627370495, %r8          # imm = 0xFFFFFFFFFFFFF
	movq	%rdi, %rcx
	andq	%r8, %rcx
	movq	%rcx, 80(%rsp)
	shrq	$52, %rdi
	movq	%rbp, %rsi
	shlq	$12, %rsi
	leaq	-4095(%r8), %rdx
	andq	%rsi, %rdx
	orq	%rdi, %rdx
	movq	%rdx, 88(%rsp)
	shrq	$40, %rbp
	movq	%rax, %rsi
	shldq	$36, %rbx, %rsi
	shlq	$24, %rbx
	leaq	-16777215(%r8), %rdi
	andq	%rbx, %rdi
	orq	%rbp, %rdi
	movq	%rdi, 96(%rsp)
	andq	%r8, %rsi
	movq	%rsi, 104(%rsp)
	movq	%rax, %rbp
	shrq	$16, %rbp
	movq	%rbp, 112(%rsp)
	testb	$2, %r12b
	je	.LBB10_28
# %bb.20:
	cmpq	$65535, %rax                    # imm = 0xFFFF
	ja	.LBB10_33
# %bb.21:
	testq	%rsi, %rsi
	jne	.LBB10_33
# %bb.22:
	cmpq	$21319971, %rdi                 # imm = 0x1455123
	ja	.LBB10_33
# %bb.23:
	jne	.LBB10_27
# %bb.24:
	movabsq	$445351433356290, %rax          # imm = 0x1950B75FC4402
	cmpq	%rax, %rdx
	ja	.LBB10_33
# %bb.25:
	jne	.LBB10_27
# %bb.26:
	movabsq	$3836686497331949, %rax         # imm = 0xDA1722FC9BAED
	cmpq	%rax, %rcx
	ja	.LBB10_33
.LBB10_27:                              # %secp256k1_fe_cmp_var.exit.thread22.i
	movabsq	$666908835070273, %rax          # imm = 0x25E8CD0364141
	addq	%rax, %rcx
	movq	%rcx, 80(%rsp)
	movabsq	$4058248194014205, %rax         # imm = 0xE6AF48A03BBFD
	addq	%rax, %rdx
	movq	%rdx, 88(%rsp)
	leaq	(%r8,%rdi), %rax
	addq	$-21319971, %rax                # imm = 0xFEBAAEDD
	movq	%rax, 96(%rsp)
	movq	%r8, 104(%rsp)
	movabsq	$281474976710655, %rax          # imm = 0xFFFFFFFFFFFF
	addq	%rax, %rbp
	movq	%rbp, 112(%rsp)
.LBB10_28:
	andl	$1, %r12d
	leaq	424(%rsp), %rdi
	leaq	80(%rsp), %rsi
	movl	%r12d, %edx
	callq	secp256k1_ge_set_xo_var
	testl	%eax, %eax
	je	.LBB10_33
# %bb.29:
	movl	%r13d, 44(%rsp)                 # 4-byte Spill
	movl	504(%rsp), %eax
	movl	%eax, 632(%rsp)
	movups	424(%rsp), %xmm0
	movdqu	440(%rsp), %xmm1
	movaps	%xmm0, 512(%rsp)
	movdqa	%xmm1, 528(%rsp)
	movq	456(%rsp), %rax
	movq	%rax, 544(%rsp)
	movups	464(%rsp), %xmm0
	movups	%xmm0, 552(%rsp)
	movdqu	480(%rsp), %xmm0
	movdqu	%xmm0, 568(%rsp)
	movq	496(%rsp), %rax
	movq	%rax, 584(%rsp)
	movq	$1, 592(%rsp)
	pxor	%xmm0, %xmm0
	movdqu	%xmm0, 600(%rsp)
	movdqu	%xmm0, 616(%rsp)
	leaq	720(%rsp), %rbx
	leaq	144(%rsp), %rsi
	movq	%rbx, %rdi
	callq	secp256k1_scalar_inverse
	leaq	336(%rsp), %rsi
	movq	%rbx, %rdi
	leaq	688(%rsp), %rdx
	#APP
	movq	(%rdi), %r15
	movq	8(%rdi), %rbx
	movq	16(%rdi), %rcx
	movq	(%rdx), %r11
	movq	8(%rdx), %r12
	movq	16(%rdx), %r13
	movq	24(%rdx), %r14
	movq	%r15, %rax
	mulq	%r11
	movq	%rax, (%rsi)
	movq	%rdx, %r8
	xorq	%r9, %r9
	xorq	%r10, %r10
	movq	%r15, %rax
	mulq	%r12
	addq	%rax, %r8
	adcq	%rdx, %r9
	adcq	$0, %r10
	movq	%rbx, %rax
	mulq	%r11
	addq	%rax, %r8
	adcq	%rdx, %r9
	adcq	$0, %r10
	movq	%r8, 8(%rsi)
	xorq	%r8, %r8
	movq	%r15, %rax
	mulq	%r13
	addq	%rax, %r9
	adcq	%rdx, %r10
	adcq	$0, %r8
	movq	%rbx, %rax
	mulq	%r12
	addq	%rax, %r9
	adcq	%rdx, %r10
	adcq	$0, %r8
	movq	%rcx, %rax
	mulq	%r11
	addq	%rax, %r9
	adcq	%rdx, %r10
	adcq	$0, %r8
	movq	%r9, 16(%rsi)
	xorq	%r9, %r9
	movq	%r15, %rax
	mulq	%r14
	addq	%rax, %r10
	adcq	%rdx, %r8
	adcq	$0, %r9
	movq	24(%rdi), %r15
	movq	%rbx, %rax
	mulq	%r13
	addq	%rax, %r10
	adcq	%rdx, %r8
	adcq	$0, %r9
	movq	%rcx, %rax
	mulq	%r12
	addq	%rax, %r10
	adcq	%rdx, %r8
	adcq	$0, %r9
	movq	%r15, %rax
	mulq	%r11
	addq	%rax, %r10
	adcq	%rdx, %r8
	adcq	$0, %r9
	movq	%r10, 24(%rsi)
	xorq	%r10, %r10
	movq	%rbx, %rax
	mulq	%r14
	addq	%rax, %r8
	adcq	%rdx, %r9
	adcq	$0, %r10
	movq	%rcx, %rax
	mulq	%r13
	addq	%rax, %r8
	adcq	%rdx, %r9
	adcq	$0, %r10
	movq	%r15, %rax
	mulq	%r12
	addq	%rax, %r8
	adcq	%rdx, %r9
	adcq	$0, %r10
	movq	%r8, 32(%rsi)
	xorq	%r8, %r8
	movq	%rcx, %rax
	mulq	%r14
	addq	%rax, %r9
	adcq	%rdx, %r10
	adcq	$0, %r8
	movq	%r15, %rax
	mulq	%r13
	addq	%rax, %r9
	adcq	%rdx, %r10
	adcq	$0, %r8
	movq	%r9, 40(%rsi)
	movq	%r15, %rax
	mulq	%r14
	addq	%rax, %r10
	adcq	%rdx, %r8
	movq	%r10, 48(%rsi)
	movq	%r8, 56(%rsi)

	#NO_APP
	leaq	48(%rsp), %rdi
	callq	secp256k1_scalar_reduce_512
	movq	48(%rsp), %rdi
	movq	56(%rsp), %rbx
	movq	%rbx, %rsi
	orq	%rdi, %rsi
	movq	64(%rsp), %rdx
	orq	%rdx, %rsi
	movq	72(%rsp), %rax
	xorl	%ecx, %ecx
	orq	%rax, %rsi
	setne	%cl
	negq	%rcx
	notq	%rdi
	movabsq	$-4624529908474429118, %rsi     # imm = 0xBFD25E8CD0364142
	addq	%rdi, %rsi
	notq	%rbx
	adcq	$0, %rbx
	setb	%dil
	andq	%rcx, %rsi
	movzbl	%dil, %edi
	movabsq	$-4994812053365940165, %rbp     # imm = 0xBAAEDCE6AF48A03B
	addq	%rbx, %rbp
	notq	%rdx
	adcq	%rdi, %rdx
	movq	%rsi, 48(%rsp)
	setb	%bl
	andq	%rcx, %rbp
	movzbl	%bl, %esi
	addq	$-2, %rdx
	notq	%rax
	adcq	%rsi, %rax
	movq	%rbp, 56(%rsp)
	andq	%rcx, %rdx
	movq	%rdx, 64(%rsp)
	addq	$-1, %rax
	andq	%rcx, %rax
	movq	%rax, 72(%rsp)
	leaq	336(%rsp), %rsi
	leaq	720(%rsp), %rdi
	leaq	176(%rsp), %rdx
	#APP
	movq	(%rdi), %r15
	movq	8(%rdi), %rbx
	movq	16(%rdi), %rcx
	movq	(%rdx), %r11
	movq	8(%rdx), %r12
	movq	16(%rdx), %r13
	movq	24(%rdx), %r14
	movq	%r15, %rax
	mulq	%r11
	movq	%rax, (%rsi)
	movq	%rdx, %r8
	xorq	%r9, %r9
	xorq	%r10, %r10
	movq	%r15, %rax
	mulq	%r12
	addq	%rax, %r8
	adcq	%rdx, %r9
	adcq	$0, %r10
	movq	%rbx, %rax
	mulq	%r11
	addq	%rax, %r8
	adcq	%rdx, %r9
	adcq	$0, %r10
	movq	%r8, 8(%rsi)
	xorq	%r8, %r8
	movq	%r15, %rax
	mulq	%r13
	addq	%rax, %r9
	adcq	%rdx, %r10
	adcq	$0, %r8
	movq	%rbx, %rax
	mulq	%r12
	addq	%rax, %r9
	adcq	%rdx, %r10
	adcq	$0, %r8
	movq	%rcx, %rax
	mulq	%r11
	addq	%rax, %r9
	adcq	%rdx, %r10
	adcq	$0, %r8
	movq	%r9, 16(%rsi)
	xorq	%r9, %r9
	movq	%r15, %rax
	mulq	%r14
	addq	%rax, %r10
	adcq	%rdx, %r8
	adcq	$0, %r9
	movq	24(%rdi), %r15
	movq	%rbx, %rax
	mulq	%r13
	addq	%rax, %r10
	adcq	%rdx, %r8
	adcq	$0, %r9
	movq	%rcx, %rax
	mulq	%r12
	addq	%rax, %r10
	adcq	%rdx, %r8
	adcq	$0, %r9
	movq	%r15, %rax
	mulq	%r11
	addq	%rax, %r10
	adcq	%rdx, %r8
	adcq	$0, %r9
	movq	%r10, 24(%rsi)
	xorq	%r10, %r10
	movq	%rbx, %rax
	mulq	%r14
	addq	%rax, %r8
	adcq	%rdx, %r9
	adcq	$0, %r10
	movq	%rcx, %rax
	mulq	%r13
	addq	%rax, %r8
	adcq	%rdx, %r9
	adcq	$0, %r10
	movq	%r15, %rax
	mulq	%r12
	addq	%rax, %r8
	adcq	%rdx, %r9
	adcq	$0, %r10
	movq	%r8, 32(%rsi)
	xorq	%r8, %r8
	movq	%rcx, %rax
	mulq	%r14
	addq	%rax, %r9
	adcq	%rdx, %r10
	adcq	$0, %r8
	movq	%r15, %rax
	mulq	%r13
	addq	%rax, %r9
	adcq	%rdx, %r10
	adcq	$0, %r8
	movq	%r9, 40(%rsi)
	movq	%r15, %rax
	mulq	%r14
	addq	%rax, %r10
	adcq	%rdx, %r8
	movq	%r10, 48(%rsi)
	movq	%r8, 56(%rsi)

	#NO_APP
	leaq	792(%rsp), %rbx
	movq	%rbx, %rdi
	callq	secp256k1_scalar_reduce_512
	leaq	208(%rsp), %rsi
	leaq	512(%rsp), %rdx
	movq	136(%rsp), %rdi                 # 8-byte Reload
	movq	%rbx, %rcx
	leaq	48(%rsp), %r8
	callq	secp256k1_ecmult
	movl	328(%rsp), %eax
	movl	%eax, 416(%rsp)
	testl	%eax, %eax
	je	.LBB10_31
# %bb.30:                               # %secp256k1_ecdsa_sig_recover.exit.thread34
	xorl	%r15d, %r15d
	jmp	.LBB10_33
.LBB10_31:                              # %secp256k1_ecdsa_sig_recover.exit
	leaq	288(%rsp), %rbp
	movq	%rbp, %rdi
	movq	%rbp, %rsi
	callq	secp256k1_fe_inv_var
	leaq	648(%rsp), %rdi
	movq	%rbp, %rsi
	#APP
	movq	(%rsi), %r10
	movq	8(%rsi), %r11
	movq	16(%rsi), %r12
	movq	24(%rsi), %r13
	movq	32(%rsi), %r14
	movabsq	$4503599627370495, %r15         # imm = 0xFFFFFFFFFFFFF
	leaq	(%r10,%r10), %rax
	mulq	%r13
	movq	%rax, %rbx
	movq	%rdx, %rcx
	leaq	(%r11,%r11), %rax
	mulq	%r12
	addq	%rax, %rbx
	adcq	%rdx, %rcx
	movq	%r14, %rax
	mulq	%r14
	movq	%rax, %r8
	movq	%rdx, %r9
	andq	%r15, %rax
	movabsq	$68719492368, %rdx              # imm = 0x1000003D10
	mulq	%rdx
	addq	%rax, %rbx
	adcq	%rdx, %rcx
	shrdq	$52, %r9, %r8
	movq	%rbx, %rsi
	andq	%r15, %rsi
	movq	%rsi, 32(%rsp)
	shrdq	$52, %rcx, %rbx
	xorq	%rcx, %rcx
	addq	%r14, %r14
	movq	%r10, %rax
	mulq	%r14
	addq	%rax, %rbx
	adcq	%rdx, %rcx
	leaq	(%r11,%r11), %rax
	mulq	%r13
	addq	%rax, %rbx
	adcq	%rdx, %rcx
	movq	%r12, %rax
	mulq	%r12
	addq	%rax, %rbx
	adcq	%rdx, %rcx
	movq	%r8, %rax
	movabsq	$68719492368, %rdx              # imm = 0x1000003D10
	mulq	%rdx
	addq	%rax, %rbx
	adcq	%rdx, %rcx
	movq	%rbx, %rsi
	andq	%r15, %rsi
	shrdq	$52, %rcx, %rbx
	xorq	%rcx, %rcx
	movq	%rsi, %rax
	shrq	$48, %rax
	movq	%rax, 16(%rsp)
	movabsq	$281474976710655, %rax          # imm = 0xFFFFFFFFFFFF
	andq	%rax, %rsi
	movq	%rsi, 24(%rsp)
	movq	%r10, %rax
	mulq	%r10
	movq	%rax, %r8
	movq	%rdx, %r9
	movq	%r11, %rax
	mulq	%r14
	addq	%rax, %rbx
	adcq	%rdx, %rcx
	leaq	(%r12,%r12), %rax
	mulq	%r13
	addq	%rax, %rbx
	adcq	%rdx, %rcx
	movq	%rbx, %rsi
	andq	%r15, %rsi
	shrdq	$52, %rcx, %rbx
	xorq	%rcx, %rcx
	shlq	$4, %rsi
	movq	16(%rsp), %rax
	orq	%rax, %rsi
	movabsq	$4294968273, %rax               # imm = 0x1000003D1
	mulq	%rsi
	addq	%rax, %r8
	adcq	%rdx, %r9
	movq	%r8, %rax
	andq	%r15, %rax
	movq	%rax, (%rdi)
	shrdq	$52, %r9, %r8
	xorq	%r9, %r9
	addq	%r10, %r10
	movq	%r10, %rax
	mulq	%r11
	addq	%rax, %r8
	adcq	%rdx, %r9
	movq	%r12, %rax
	mulq	%r14
	addq	%rax, %rbx
	adcq	%rdx, %rcx
	movq	%r13, %rax
	mulq	%r13
	addq	%rax, %rbx
	adcq	%rdx, %rcx
	movq	%rbx, %rax
	andq	%r15, %rax
	movabsq	$68719492368, %rdx              # imm = 0x1000003D10
	mulq	%rdx
	addq	%rax, %r8
	adcq	%rdx, %r9
	shrdq	$52, %rcx, %rbx
	xorq	%rcx, %rcx
	movq	%r8, %rax
	andq	%r15, %rax
	movq	%rax, 8(%rdi)
	shrdq	$52, %r9, %r8
	xorq	%r9, %r9
	movq	%r10, %rax
	mulq	%r12
	addq	%rax, %r8
	adcq	%rdx, %r9
	movq	24(%rsp), %rsi
	movq	32(%rsp), %r10
	movq	%r11, %rax
	mulq	%r11
	addq	%rax, %r8
	adcq	%rdx, %r9
	movq	%r13, %rax
	mulq	%r14
	addq	%rax, %rbx
	adcq	%rdx, %rcx
	movq	%rbx, %rax
	andq	%r15, %rax
	movabsq	$68719492368, %rdx              # imm = 0x1000003D10
	mulq	%rdx
	addq	%rax, %r8
	adcq	%rdx, %r9
	shrdq	$52, %rcx, %rbx
	movq	%r8, %rax
	andq	%r15, %rax
	movq	%rax, 16(%rdi)
	shrdq	$52, %r9, %r8
	xorq	%r9, %r9
	addq	%r10, %r8
	movq	%rbx, %rax
	movabsq	$68719492368, %rdx              # imm = 0x1000003D10
	mulq	%rdx
	addq	%rax, %r8
	adcq	%rdx, %r9
	movq	%r8, %rax
	andq	%r15, %rax
	movq	%rax, 24(%rdi)
	shrdq	$52, %r9, %r8
	addq	%rsi, %r8
	movq	%r8, 32(%rdi)

	#NO_APP
	leaq	752(%rsp), %rdi
	leaq	648(%rsp), %rbx
	movq	%rbp, %rsi
	#APP
	movq	(%rsi), %r10
	movq	8(%rsi), %r11
	movq	16(%rsi), %r12
	movq	24(%rsi), %r13
	movq	32(%rsi), %r14
	movq	(%rbx), %rax
	mulq	%r13
	movq	%rax, %rcx
	movq	%rdx, %r15
	movq	8(%rbx), %rax
	mulq	%r12
	addq	%rax, %rcx
	adcq	%rdx, %r15
	movq	16(%rbx), %rax
	mulq	%r11
	addq	%rax, %rcx
	adcq	%rdx, %r15
	movq	24(%rbx), %rax
	mulq	%r10
	addq	%rax, %rcx
	adcq	%rdx, %r15
	movq	32(%rbx), %rax
	mulq	%r14
	movq	%rax, %r8
	movq	%rdx, %r9
	movabsq	$4503599627370495, %rdx         # imm = 0xFFFFFFFFFFFFF
	andq	%rdx, %rax
	movabsq	$68719492368, %rdx              # imm = 0x1000003D10
	mulq	%rdx
	addq	%rax, %rcx
	adcq	%rdx, %r15
	shrdq	$52, %r9, %r8
	movq	%rcx, %rsi
	movabsq	$4503599627370495, %rdx         # imm = 0xFFFFFFFFFFFFF
	andq	%rdx, %rsi
	movq	%rsi, 32(%rsp)
	shrdq	$52, %r15, %rcx
	xorq	%r15, %r15
	movq	(%rbx), %rax
	mulq	%r14
	addq	%rax, %rcx
	adcq	%rdx, %r15
	movq	8(%rbx), %rax
	mulq	%r13
	addq	%rax, %rcx
	adcq	%rdx, %r15
	movq	16(%rbx), %rax
	mulq	%r12
	addq	%rax, %rcx
	adcq	%rdx, %r15
	movq	24(%rbx), %rax
	mulq	%r11
	addq	%rax, %rcx
	adcq	%rdx, %r15
	movq	32(%rbx), %rax
	mulq	%r10
	addq	%rax, %rcx
	adcq	%rdx, %r15
	movq	%r8, %rax
	movabsq	$68719492368, %rdx              # imm = 0x1000003D10
	mulq	%rdx
	addq	%rax, %rcx
	adcq	%rdx, %r15
	movq	%rcx, %rsi
	movabsq	$4503599627370495, %rdx         # imm = 0xFFFFFFFFFFFFF
	andq	%rdx, %rsi
	shrdq	$52, %r15, %rcx
	xorq	%r15, %r15
	movq	%rsi, %rax
	shrq	$48, %rax
	movq	%rax, 16(%rsp)
	movabsq	$281474976710655, %rax          # imm = 0xFFFFFFFFFFFF
	andq	%rax, %rsi
	movq	%rsi, 24(%rsp)
	movq	(%rbx), %rax
	mulq	%r10
	movq	%rax, %r8
	movq	%rdx, %r9
	movq	8(%rbx), %rax
	mulq	%r14
	addq	%rax, %rcx
	adcq	%rdx, %r15
	movq	16(%rbx), %rax
	mulq	%r13
	addq	%rax, %rcx
	adcq	%rdx, %r15
	movq	24(%rbx), %rax
	mulq	%r12
	addq	%rax, %rcx
	adcq	%rdx, %r15
	movq	32(%rbx), %rax
	mulq	%r11
	addq	%rax, %rcx
	adcq	%rdx, %r15
	movq	%rcx, %rsi
	movabsq	$4503599627370495, %rdx         # imm = 0xFFFFFFFFFFFFF
	andq	%rdx, %rsi
	shrdq	$52, %r15, %rcx
	xorq	%r15, %r15
	shlq	$4, %rsi
	movq	16(%rsp), %rax
	orq	%rax, %rsi
	movabsq	$4294968273, %rax               # imm = 0x1000003D1
	mulq	%rsi
	addq	%rax, %r8
	adcq	%rdx, %r9
	movq	%r8, %rax
	movabsq	$4503599627370495, %rdx         # imm = 0xFFFFFFFFFFFFF
	andq	%rdx, %rax
	movq	%rax, (%rdi)
	shrdq	$52, %r9, %r8
	xorq	%r9, %r9
	movq	(%rbx), %rax
	mulq	%r11
	addq	%rax, %r8
	adcq	%rdx, %r9
	movq	8(%rbx), %rax
	mulq	%r10
	addq	%rax, %r8
	adcq	%rdx, %r9
	movq	16(%rbx), %rax
	mulq	%r14
	addq	%rax, %rcx
	adcq	%rdx, %r15
	movq	24(%rbx), %rax
	mulq	%r13
	addq	%rax, %rcx
	adcq	%rdx, %r15
	movq	32(%rbx), %rax
	mulq	%r12
	addq	%rax, %rcx
	adcq	%rdx, %r15
	movq	%rcx, %rax
	movabsq	$4503599627370495, %rdx         # imm = 0xFFFFFFFFFFFFF
	andq	%rdx, %rax
	movabsq	$68719492368, %rdx              # imm = 0x1000003D10
	mulq	%rdx
	addq	%rax, %r8
	adcq	%rdx, %r9
	shrdq	$52, %r15, %rcx
	xorq	%r15, %r15
	movq	%r8, %rax
	movabsq	$4503599627370495, %rdx         # imm = 0xFFFFFFFFFFFFF
	andq	%rdx, %rax
	movq	%rax, 8(%rdi)
	shrdq	$52, %r9, %r8
	xorq	%r9, %r9
	movq	(%rbx), %rax
	mulq	%r12
	addq	%rax, %r8
	adcq	%rdx, %r9
	movq	8(%rbx), %rax
	mulq	%r11
	addq	%rax, %r8
	adcq	%rdx, %r9
	movq	16(%rbx), %rax
	mulq	%r10
	addq	%rax, %r8
	adcq	%rdx, %r9
	movq	24(%rsp), %rsi
	movq	32(%rsp), %r10
	movq	24(%rbx), %rax
	mulq	%r14
	addq	%rax, %rcx
	adcq	%rdx, %r15
	movq	32(%rbx), %rax
	mulq	%r13
	addq	%rax, %rcx
	adcq	%rdx, %r15
	movq	%rcx, %rax
	movabsq	$4503599627370495, %rdx         # imm = 0xFFFFFFFFFFFFF
	andq	%rdx, %rax
	movabsq	$68719492368, %rdx              # imm = 0x1000003D10
	mulq	%rdx
	addq	%rax, %r8
	adcq	%rdx, %r9
	shrdq	$52, %r15, %rcx
	movq	%r8, %rax
	movabsq	$4503599627370495, %rdx         # imm = 0xFFFFFFFFFFFFF
	andq	%rdx, %rax
	movq	%rax, 16(%rdi)
	shrdq	$52, %r9, %r8
	xorq	%r9, %r9
	addq	%r10, %r8
	movq	%rcx, %rax
	movabsq	$68719492368, %rdx              # imm = 0x1000003D10
	mulq	%rdx
	addq	%rax, %r8
	adcq	%rdx, %r9
	movq	%r8, %rax
	movabsq	$4503599627370495, %rdx         # imm = 0xFFFFFFFFFFFFF
	andq	%rdx, %rax
	movq	%rax, 24(%rdi)
	shrdq	$52, %r9, %r8
	addq	%rsi, %r8
	movq	%r8, 32(%rdi)

	#NO_APP
	leaq	648(%rsp), %rbx
	leaq	208(%rsp), %rdi
	movq	%rdi, %rsi
	#APP
	movq	(%rsi), %r10
	movq	8(%rsi), %r11
	movq	16(%rsi), %r12
	movq	24(%rsi), %r13
	movq	32(%rsi), %r14
	movq	(%rbx), %rax
	mulq	%r13
	movq	%rax, %rcx
	movq	%rdx, %r15
	movq	8(%rbx), %rax
	mulq	%r12
	addq	%rax, %rcx
	adcq	%rdx, %r15
	movq	16(%rbx), %rax
	mulq	%r11
	addq	%rax, %rcx
	adcq	%rdx, %r15
	movq	24(%rbx), %rax
	mulq	%r10
	addq	%rax, %rcx
	adcq	%rdx, %r15
	movq	32(%rbx), %rax
	mulq	%r14
	movq	%rax, %r8
	movq	%rdx, %r9
	movabsq	$4503599627370495, %rdx         # imm = 0xFFFFFFFFFFFFF
	andq	%rdx, %rax
	movabsq	$68719492368, %rdx              # imm = 0x1000003D10
	mulq	%rdx
	addq	%rax, %rcx
	adcq	%rdx, %r15
	shrdq	$52, %r9, %r8
	movq	%rcx, %rsi
	movabsq	$4503599627370495, %rdx         # imm = 0xFFFFFFFFFFFFF
	andq	%rdx, %rsi
	movq	%rsi, 32(%rsp)
	shrdq	$52, %r15, %rcx
	xorq	%r15, %r15
	movq	(%rbx), %rax
	mulq	%r14
	addq	%rax, %rcx
	adcq	%rdx, %r15
	movq	8(%rbx), %rax
	mulq	%r13
	addq	%rax, %rcx
	adcq	%rdx, %r15
	movq	16(%rbx), %rax
	mulq	%r12
	addq	%rax, %rcx
	adcq	%rdx, %r15
	movq	24(%rbx), %rax
	mulq	%r11
	addq	%rax, %rcx
	adcq	%rdx, %r15
	movq	32(%rbx), %rax
	mulq	%r10
	addq	%rax, %rcx
	adcq	%rdx, %r15
	movq	%r8, %rax
	movabsq	$68719492368, %rdx              # imm = 0x1000003D10
	mulq	%rdx
	addq	%rax, %rcx
	adcq	%rdx, %r15
	movq	%rcx, %rsi
	movabsq	$4503599627370495, %rdx         # imm = 0xFFFFFFFFFFFFF
	andq	%rdx, %rsi
	shrdq	$52, %r15, %rcx
	xorq	%r15, %r15
	movq	%rsi, %rax
	shrq	$48, %rax
	movq	%rax, 16(%rsp)
	movabsq	$281474976710655, %rax          # imm = 0xFFFFFFFFFFFF
	andq	%rax, %rsi
	movq	%rsi, 24(%rsp)
	movq	(%rbx), %rax
	mulq	%r10
	movq	%rax, %r8
	movq	%rdx, %r9
	movq	8(%rbx), %rax
	mulq	%r14
	addq	%rax, %rcx
	adcq	%rdx, %r15
	movq	16(%rbx), %rax
	mulq	%r13
	addq	%rax, %rcx
	adcq	%rdx, %r15
	movq	24(%rbx), %rax
	mulq	%r12
	addq	%rax, %rcx
	adcq	%rdx, %r15
	movq	32(%rbx), %rax
	mulq	%r11
	addq	%rax, %rcx
	adcq	%rdx, %r15
	movq	%rcx, %rsi
	movabsq	$4503599627370495, %rdx         # imm = 0xFFFFFFFFFFFFF
	andq	%rdx, %rsi
	shrdq	$52, %r15, %rcx
	xorq	%r15, %r15
	shlq	$4, %rsi
	movq	16(%rsp), %rax
	orq	%rax, %rsi
	movabsq	$4294968273, %rax               # imm = 0x1000003D1
	mulq	%rsi
	addq	%rax, %r8
	adcq	%rdx, %r9
	movq	%r8, %rax
	movabsq	$4503599627370495, %rdx         # imm = 0xFFFFFFFFFFFFF
	andq	%rdx, %rax
	movq	%rax, (%rdi)
	shrdq	$52, %r9, %r8
	xorq	%r9, %r9
	movq	(%rbx), %rax
	mulq	%r11
	addq	%rax, %r8
	adcq	%rdx, %r9
	movq	8(%rbx), %rax
	mulq	%r10
	addq	%rax, %r8
	adcq	%rdx, %r9
	movq	16(%rbx), %rax
	mulq	%r14
	addq	%rax, %rcx
	adcq	%rdx, %r15
	movq	24(%rbx), %rax
	mulq	%r13
	addq	%rax, %rcx
	adcq	%rdx, %r15
	movq	32(%rbx), %rax
	mulq	%r12
	addq	%rax, %rcx
	adcq	%rdx, %r15
	movq	%rcx, %rax
	movabsq	$4503599627370495, %rdx         # imm = 0xFFFFFFFFFFFFF
	andq	%rdx, %rax
	movabsq	$68719492368, %rdx              # imm = 0x1000003D10
	mulq	%rdx
	addq	%rax, %r8
	adcq	%rdx, %r9
	shrdq	$52, %r15, %rcx
	xorq	%r15, %r15
	movq	%r8, %rax
	movabsq	$4503599627370495, %rdx         # imm = 0xFFFFFFFFFFFFF
	andq	%rdx, %rax
	movq	%rax, 8(%rdi)
	shrdq	$52, %r9, %r8
	xorq	%r9, %r9
	movq	(%rbx), %rax
	mulq	%r12
	addq	%rax, %r8
	adcq	%rdx, %r9
	movq	8(%rbx), %rax
	mulq	%r11
	addq	%rax, %r8
	adcq	%rdx, %r9
	movq	16(%rbx), %rax
	mulq	%r10
	addq	%rax, %r8
	adcq	%rdx, %r9
	movq	24(%rsp), %rsi
	movq	32(%rsp), %r10
	movq	24(%rbx), %rax
	mulq	%r14
	addq	%rax, %rcx
	adcq	%rdx, %r15
	movq	32(%rbx), %rax
	mulq	%r13
	addq	%rax, %rcx
	adcq	%rdx, %r15
	movq	%rcx, %rax
	movabsq	$4503599627370495, %rdx         # imm = 0xFFFFFFFFFFFFF
	andq	%rdx, %rax
	movabsq	$68719492368, %rdx              # imm = 0x1000003D10
	mulq	%rdx
	addq	%rax, %r8
	adcq	%rdx, %r9
	shrdq	$52, %r15, %rcx
	movq	%r8, %rax
	movabsq	$4503599627370495, %rdx         # imm = 0xFFFFFFFFFFFFF
	andq	%rdx, %rax
	movq	%rax, 16(%rdi)
	shrdq	$52, %r9, %r8
	xorq	%r9, %r9
	addq	%r10, %r8
	movq	%rcx, %rax
	movabsq	$68719492368, %rdx              # imm = 0x1000003D10
	mulq	%rdx
	addq	%rax, %r8
	adcq	%rdx, %r9
	movq	%r8, %rax
	movabsq	$4503599627370495, %rdx         # imm = 0xFFFFFFFFFFFFF
	andq	%rdx, %rax
	movq	%rax, 24(%rdi)
	shrdq	$52, %r9, %r8
	addq	%rsi, %r8
	movq	%r8, 32(%rdi)

	#NO_APP
	leaq	248(%rsp), %rdi
	leaq	752(%rsp), %rbx
	movq	%rdi, %rsi
	#APP
	movq	(%rsi), %r10
	movq	8(%rsi), %r11
	movq	16(%rsi), %r12
	movq	24(%rsi), %r13
	movq	32(%rsi), %r14
	movq	(%rbx), %rax
	mulq	%r13
	movq	%rax, %rcx
	movq	%rdx, %r15
	movq	8(%rbx), %rax
	mulq	%r12
	addq	%rax, %rcx
	adcq	%rdx, %r15
	movq	16(%rbx), %rax
	mulq	%r11
	addq	%rax, %rcx
	adcq	%rdx, %r15
	movq	24(%rbx), %rax
	mulq	%r10
	addq	%rax, %rcx
	adcq	%rdx, %r15
	movq	32(%rbx), %rax
	mulq	%r14
	movq	%rax, %r8
	movq	%rdx, %r9
	movabsq	$4503599627370495, %rdx         # imm = 0xFFFFFFFFFFFFF
	andq	%rdx, %rax
	movabsq	$68719492368, %rdx              # imm = 0x1000003D10
	mulq	%rdx
	addq	%rax, %rcx
	adcq	%rdx, %r15
	shrdq	$52, %r9, %r8
	movq	%rcx, %rsi
	movabsq	$4503599627370495, %rdx         # imm = 0xFFFFFFFFFFFFF
	andq	%rdx, %rsi
	movq	%rsi, 32(%rsp)
	shrdq	$52, %r15, %rcx
	xorq	%r15, %r15
	movq	(%rbx), %rax
	mulq	%r14
	addq	%rax, %rcx
	adcq	%rdx, %r15
	movq	8(%rbx), %rax
	mulq	%r13
	addq	%rax, %rcx
	adcq	%rdx, %r15
	movq	16(%rbx), %rax
	mulq	%r12
	addq	%rax, %rcx
	adcq	%rdx, %r15
	movq	24(%rbx), %rax
	mulq	%r11
	addq	%rax, %rcx
	adcq	%rdx, %r15
	movq	32(%rbx), %rax
	mulq	%r10
	addq	%rax, %rcx
	adcq	%rdx, %r15
	movq	%r8, %rax
	movabsq	$68719492368, %rdx              # imm = 0x1000003D10
	mulq	%rdx
	addq	%rax, %rcx
	adcq	%rdx, %r15
	movq	%rcx, %rsi
	movabsq	$4503599627370495, %rdx         # imm = 0xFFFFFFFFFFFFF
	andq	%rdx, %rsi
	shrdq	$52, %r15, %rcx
	xorq	%r15, %r15
	movq	%rsi, %rax
	shrq	$48, %rax
	movq	%rax, 16(%rsp)
	movabsq	$281474976710655, %rax          # imm = 0xFFFFFFFFFFFF
	andq	%rax, %rsi
	movq	%rsi, 24(%rsp)
	movq	(%rbx), %rax
	mulq	%r10
	movq	%rax, %r8
	movq	%rdx, %r9
	movq	8(%rbx), %rax
	mulq	%r14
	addq	%rax, %rcx
	adcq	%rdx, %r15
	movq	16(%rbx), %rax
	mulq	%r13
	addq	%rax, %rcx
	adcq	%rdx, %r15
	movq	24(%rbx), %rax
	mulq	%r12
	addq	%rax, %rcx
	adcq	%rdx, %r15
	movq	32(%rbx), %rax
	mulq	%r11
	addq	%rax, %rcx
	adcq	%rdx, %r15
	movq	%rcx, %rsi
	movabsq	$4503599627370495, %rdx         # imm = 0xFFFFFFFFFFFFF
	andq	%rdx, %rsi
	shrdq	$52, %r15, %rcx
	xorq	%r15, %r15
	shlq	$4, %rsi
	movq	16(%rsp), %rax
	orq	%rax, %rsi
	movabsq	$4294968273, %rax               # imm = 0x1000003D1
	mulq	%rsi
	addq	%rax, %r8
	adcq	%rdx, %r9
	movq	%r8, %rax
	movabsq	$4503599627370495, %rdx         # imm = 0xFFFFFFFFFFFFF
	andq	%rdx, %rax
	movq	%rax, (%rdi)
	shrdq	$52, %r9, %r8
	xorq	%r9, %r9
	movq	(%rbx), %rax
	mulq	%r11
	addq	%rax, %r8
	adcq	%rdx, %r9
	movq	8(%rbx), %rax
	mulq	%r10
	addq	%rax, %r8
	adcq	%rdx, %r9
	movq	16(%rbx), %rax
	mulq	%r14
	addq	%rax, %rcx
	adcq	%rdx, %r15
	movq	24(%rbx), %rax
	mulq	%r13
	addq	%rax, %rcx
	adcq	%rdx, %r15
	movq	32(%rbx), %rax
	mulq	%r12
	addq	%rax, %rcx
	adcq	%rdx, %r15
	movq	%rcx, %rax
	movabsq	$4503599627370495, %rdx         # imm = 0xFFFFFFFFFFFFF
	andq	%rdx, %rax
	movabsq	$68719492368, %rdx              # imm = 0x1000003D10
	mulq	%rdx
	addq	%rax, %r8
	adcq	%rdx, %r9
	shrdq	$52, %r15, %rcx
	xorq	%r15, %r15
	movq	%r8, %rax
	movabsq	$4503599627370495, %rdx         # imm = 0xFFFFFFFFFFFFF
	andq	%rdx, %rax
	movq	%rax, 8(%rdi)
	shrdq	$52, %r9, %r8
	xorq	%r9, %r9
	movq	(%rbx), %rax
	mulq	%r12
	addq	%rax, %r8
	adcq	%rdx, %r9
	movq	8(%rbx), %rax
	mulq	%r11
	addq	%rax, %r8
	adcq	%rdx, %r9
	movq	16(%rbx), %rax
	mulq	%r10
	addq	%rax, %r8
	adcq	%rdx, %r9
	movq	24(%rsp), %rsi
	movq	32(%rsp), %r10
	movq	24(%rbx), %rax
	mulq	%r14
	addq	%rax, %rcx
	adcq	%rdx, %r15
	movq	32(%rbx), %rax
	mulq	%r13
	addq	%rax, %rcx
	adcq	%rdx, %r15
	movq	%rcx, %rax
	movabsq	$4503599627370495, %rdx         # imm = 0xFFFFFFFFFFFFF
	andq	%rdx, %rax
	movabsq	$68719492368, %rdx              # imm = 0x1000003D10
	mulq	%rdx
	addq	%rax, %r8
	adcq	%rdx, %r9
	shrdq	$52, %r15, %rcx
	movq	%r8, %rax
	movabsq	$4503599627370495, %rdx         # imm = 0xFFFFFFFFFFFFF
	andq	%rdx, %rax
	movq	%rax, 16(%rdi)
	shrdq	$52, %r9, %r8
	xorq	%r9, %r9
	addq	%r10, %r8
	movq	%rcx, %rax
	movabsq	$68719492368, %rdx              # imm = 0x1000003D10
	mulq	%rdx
	addq	%rax, %r8
	adcq	%rdx, %r9
	movq	%r8, %rax
	movabsq	$4503599627370495, %rdx         # imm = 0xFFFFFFFFFFFFF
	andq	%rdx, %rax
	movq	%rax, 24(%rdi)
	shrdq	$52, %r9, %r8
	addq	%rsi, %r8
	movq	%r8, 32(%rdi)

	#NO_APP
	movq	$1, 288(%rsp)
	pxor	%xmm0, %xmm0
	movdqu	%xmm0, 296(%rsp)
	movdqu	%xmm0, 312(%rsp)
	movups	208(%rsp), %xmm0
	movdqu	224(%rsp), %xmm1
	movaps	%xmm0, 336(%rsp)
	movdqa	%xmm1, 352(%rsp)
	movq	240(%rsp), %rax
	movq	%rax, 368(%rsp)
	movups	248(%rsp), %xmm0
	movups	%xmm0, 376(%rsp)
	movdqu	264(%rsp), %xmm0
	movdqu	%xmm0, 392(%rsp)
	movq	280(%rsp), %rax
	movq	%rax, 408(%rsp)
	xorl	%r15d, %r15d
	cmpl	$0, 328(%rsp)
	movl	44(%rsp), %ecx                  # 4-byte Reload
	movq	120(%rsp), %rdx                 # 8-byte Reload
	jne	.LBB10_33
# %bb.32:
	leaq	336(%rsp), %rdi
	movq	128(%rsp), %rsi                 # 8-byte Reload
	callq	secp256k1_eckey_pubkey_serialize
	movl	%eax, %r15d
	jmp	.LBB10_33
.LBB10_1:
	movq	stderr@GOTPCREL(%rip), %rax
	movq	(%rax), %rdi
	leaq	.L.str(%rip), %rsi
	leaq	.L.str.1(%rip), %rdx
	leaq	.L.str.2(%rip), %r8
	movl	$204, %ecx
	jmp	.LBB10_2
.LBB10_4:
	movq	stderr@GOTPCREL(%rip), %rax
	movq	(%rax), %rdi
	leaq	.L.str(%rip), %rsi
	leaq	.L.str.1(%rip), %rdx
	leaq	.L.str.3(%rip), %r8
	movl	$205, %ecx
	jmp	.LBB10_2
.LBB10_6:
	movq	stderr@GOTPCREL(%rip), %rax
	movq	(%rax), %rdi
	leaq	.L.str(%rip), %rsi
	leaq	.L.str.1(%rip), %rdx
	leaq	.L.str.4(%rip), %r8
	movl	$206, %ecx
	jmp	.LBB10_2
.LBB10_8:
	movq	stderr@GOTPCREL(%rip), %rax
	movq	(%rax), %rdi
	leaq	.L.str(%rip), %rsi
	leaq	.L.str.1(%rip), %rdx
	leaq	.L.str.11(%rip), %r8
	movl	$207, %ecx
	jmp	.LBB10_2
.LBB10_10:
	movq	stderr@GOTPCREL(%rip), %rax
	movq	(%rax), %rdi
	leaq	.L.str(%rip), %rsi
	leaq	.L.str.1(%rip), %rdx
	leaq	.L.str.6(%rip), %r8
	movl	$208, %ecx
	jmp	.LBB10_2
.LBB10_12:
	movq	stderr@GOTPCREL(%rip), %rax
	movq	(%rax), %rdi
	leaq	.L.str(%rip), %rsi
	leaq	.L.str.1(%rip), %rdx
	leaq	.L.str.12(%rip), %r8
	movl	$209, %ecx
	jmp	.LBB10_2
.LBB10_14:
	movq	stderr@GOTPCREL(%rip), %rax
	movq	(%rax), %rdi
	leaq	.L.str(%rip), %rsi
	leaq	.L.str.1(%rip), %rdx
	leaq	.L.str.13(%rip), %r8
	movl	$210, %ecx
.LBB10_2:
	xorl	%eax, %eax
	callq	fprintf@PLT
	callq	abort@PLT
.Lfunc_end10:
	.size	secp256k1_ecdsa_recover_compact, .Lfunc_end10-secp256k1_ecdsa_recover_compact
	.cfi_endproc
                                        # -- End function
	.p2align	4, 0x90                         # -- Begin function secp256k1_eckey_pubkey_serialize
	.type	secp256k1_eckey_pubkey_serialize,@function
secp256k1_eckey_pubkey_serialize:       # @secp256k1_eckey_pubkey_serialize
	.cfi_startproc
# %bb.0:
	pushq	%rbp
	.cfi_def_cfa_offset 16
	pushq	%r15
	.cfi_def_cfa_offset 24
	pushq	%r14
	.cfi_def_cfa_offset 32
	pushq	%r13
	.cfi_def_cfa_offset 40
	pushq	%r12
	.cfi_def_cfa_offset 48
	pushq	%rbx
	.cfi_def_cfa_offset 56
	.cfi_offset %rbx, -56
	.cfi_offset %r12, -48
	.cfi_offset %r13, -40
	.cfi_offset %r14, -32
	.cfi_offset %r15, -24
	.cfi_offset %rbp, -16
	xorl	%eax, %eax
	cmpl	$0, 80(%rdi)
	jne	.LBB11_9
# %bb.1:
	movl	%ecx, -20(%rsp)                 # 4-byte Spill
	movq	%rdx, -16(%rsp)                 # 8-byte Spill
	movabsq	$4503599627370495, %r11         # imm = 0xFFFFFFFFFFFFF
	movabsq	$4294968273, %r15               # imm = 0x1000003D1
	movq	32(%rdi), %rbx
	movq	%rbx, %rax
	shrq	$48, %rax
	imulq	%r15, %rax
	addq	(%rdi), %rax
	movabsq	$4503595332402222, %rcx         # imm = 0xFFFFEFFFFFC2E
	movq	%rax, %r8
	shrq	$52, %r8
	addq	8(%rdi), %r8
	movabsq	$281474976710655, %r14          # imm = 0xFFFFFFFFFFFF
	movq	%r8, %r9
	shrq	$52, %r9
	addq	16(%rdi), %r9
	andq	%r14, %rbx
	movq	%r9, %r10
	shrq	$52, %r10
	addq	24(%rdi), %r10
	andq	%r11, %rax
	andq	%r11, %r9
	movq	%r9, %rdx
	andq	%r8, %rdx
	andq	%r11, %r8
	movq	%r10, %r13
	shrq	$52, %r13
	addq	%rbx, %r13
	andq	%r10, %rdx
	andq	%r11, %r10
	movq	%r13, %rbx
	shrq	$48, %rbx
	movq	%r13, %rbp
	xorq	%r14, %rbp
	xorq	%r11, %rdx
	orq	%rbp, %rdx
	sete	%dl
	cmpq	%rcx, %rax
	seta	%cl
	andb	%dl, %cl
	movzbl	%cl, %ecx
	orq	%rbx, %rcx
	movq	%rsi, -8(%rsp)                  # 8-byte Spill
	je	.LBB11_3
# %bb.2:
	addq	%r15, %rax
	movq	%rax, %rcx
	shrq	$52, %rcx
	addq	%rcx, %r8
	andq	%r11, %rax
	movq	%r8, %rcx
	shrq	$52, %rcx
	addq	%rcx, %r9
	andq	%r11, %r8
	movq	%r9, %rcx
	shrq	$52, %rcx
	addq	%rcx, %r10
	andq	%r11, %r9
	movq	%r10, %rcx
	shrq	$52, %rcx
	addq	%r13, %rcx
	andq	%r11, %r10
	andq	%r14, %rcx
	movq	%rcx, %r13
.LBB11_3:                               # %secp256k1_fe_normalize_var.exit
	movq	%rax, (%rdi)
	movq	%r8, 8(%rdi)
	movq	%r9, 16(%rdi)
	movq	%r10, 24(%rdi)
	movq	%r13, 32(%rdi)
	movq	72(%rdi), %rdx
	movq	%rdx, %rbx
	shrq	$48, %rbx
	imulq	%r15, %rbx
	addq	40(%rdi), %rbx
	movq	%rbx, %r15
	shrq	$52, %r15
	addq	48(%rdi), %r15
	movq	%r15, %r12
	shrq	$52, %r12
	addq	56(%rdi), %r12
	andq	%r14, %rdx
	movq	%r12, %rbp
	shrq	$52, %rbp
	addq	64(%rdi), %rbp
	andq	%r11, %rbx
	andq	%r11, %r12
	movq	%r12, %rcx
	andq	%r15, %rcx
	andq	%r11, %r15
	movq	%r11, %rsi
	movq	%rbp, %r11
	shrq	$52, %r11
	addq	%rdx, %r11
	andq	%rbp, %rcx
	andq	%rsi, %rbp
	movq	%r11, %rdx
	shrq	$48, %rdx
	movq	%r14, %rsi
	movq	%r11, %r14
	xorq	%rsi, %r14
	movabsq	$4503599627370495, %rsi         # imm = 0xFFFFFFFFFFFFF
	xorq	%rsi, %rcx
	orq	%r14, %rcx
	sete	%r14b
	movabsq	$4503595332402222, %rcx         # imm = 0xFFFFEFFFFFC2E
	cmpq	%rcx, %rbx
	seta	%cl
	andb	%r14b, %cl
	movzbl	%cl, %ecx
	orq	%rdx, %rcx
	je	.LBB11_5
# %bb.4:
	movabsq	$4294968273, %rcx               # imm = 0x1000003D1
	addq	%rcx, %rbx
	movq	%rbx, %rcx
	shrq	$52, %rcx
	addq	%rcx, %r15
	andq	%rsi, %rbx
	movq	%r15, %rcx
	shrq	$52, %rcx
	addq	%rcx, %r12
	andq	%rsi, %r15
	movq	%r12, %rcx
	shrq	$52, %rcx
	addq	%rcx, %rbp
	andq	%rsi, %r12
	movq	%rbp, %rcx
	shrq	$52, %rcx
	addq	%r11, %rcx
	andq	%rsi, %rbp
	movabsq	$281474976710655, %rdx          # imm = 0xFFFFFFFFFFFF
	andq	%rdx, %rcx
	movq	%rcx, %r11
.LBB11_5:                               # %secp256k1_fe_normalize_var.exit22
	movq	%rbx, 40(%rdi)
	movq	%r15, 48(%rdi)
	movq	%r12, 56(%rdi)
	movq	%rbp, 64(%rdi)
	shlq	$16, %r13
	movq	%r10, %rcx
	shrq	$36, %rcx
	orq	%r13, %rcx
	bswapq	%rcx
	movq	%r11, 72(%rdi)
	movq	-8(%rsp), %rsi                  # 8-byte Reload
	movq	%rcx, 1(%rsi)
	shlq	$28, %r10
	movq	%r9, %rcx
	shrq	$24, %rcx
	orq	%r10, %rcx
	bswapq	%rcx
	shlq	$40, %r9
	movq	%r8, %rdx
	shrq	$12, %rdx
	orq	%r9, %rdx
	bswapq	%rdx
	movq	%rcx, 9(%rsi)
	movq	%rdx, 17(%rsi)
	shlq	$52, %r8
	orq	%r8, %rax
	bswapq	%rax
	movq	%rax, 25(%rsi)
	cmpl	$0, -20(%rsp)                   # 4-byte Folded Reload
	je	.LBB11_7
# %bb.6:
	movq	-16(%rsp), %rax                 # 8-byte Reload
	movl	$33, (%rax)
	movb	40(%rdi), %al
	andb	$1, %al
	orb	$2, %al
	movb	%al, (%rsi)
	jmp	.LBB11_8
.LBB11_7:
	movq	-16(%rsp), %rax                 # 8-byte Reload
	movl	$65, (%rax)
	movb	$4, (%rsi)
	movq	72(%rdi), %rcx
	movq	64(%rdi), %rbp
	movq	48(%rdi), %rax
	movq	56(%rdi), %rbx
	shlq	$16, %rcx
	movq	%rbp, %rdx
	shrq	$36, %rdx
	orq	%rcx, %rdx
	bswapq	%rdx
	movq	%rax, %rcx
	shlq	$52, %rcx
	orq	40(%rdi), %rcx
	shlq	$28, %rbp
	movq	%rbx, %rdi
	shrq	$24, %rdi
	orq	%rbp, %rdi
	bswapq	%rdi
	movq	%rdx, 33(%rsi)
	movq	%rdi, 41(%rsi)
	shlq	$40, %rbx
	shrq	$12, %rax
	orq	%rbx, %rax
	bswapq	%rax
	movq	%rax, 49(%rsi)
	bswapq	%rcx
	movq	%rcx, 57(%rsi)
.LBB11_8:
	movl	$1, %eax
.LBB11_9:
	popq	%rbx
	.cfi_def_cfa_offset 48
	popq	%r12
	.cfi_def_cfa_offset 40
	popq	%r13
	.cfi_def_cfa_offset 32
	popq	%r14
	.cfi_def_cfa_offset 24
	popq	%r15
	.cfi_def_cfa_offset 16
	popq	%rbp
	.cfi_def_cfa_offset 8
	retq
.Lfunc_end11:
	.size	secp256k1_eckey_pubkey_serialize, .Lfunc_end11-secp256k1_eckey_pubkey_serialize
	.cfi_endproc
                                        # -- End function
	.globl	secp256k1_ec_seckey_verify      # -- Begin function secp256k1_ec_seckey_verify
	.p2align	4, 0x90
	.type	secp256k1_ec_seckey_verify,@function
secp256k1_ec_seckey_verify:             # @secp256k1_ec_seckey_verify
	.cfi_startproc
# %bb.0:
	subq	$56, %rsp
	.cfi_def_cfa_offset 64
	testq	%rdi, %rdi
	je	.LBB12_1
# %bb.3:
	testq	%rsi, %rsi
	je	.LBB12_4
# %bb.5:
	leaq	16(%rsp), %rdi
	leaq	12(%rsp), %rdx
	callq	secp256k1_scalar_set_b32
	movdqa	16(%rsp), %xmm0
	por	32(%rsp), %xmm0
	pxor	%xmm1, %xmm1
	pcmpeqb	%xmm0, %xmm1
	pmovmskb	%xmm1, %eax
	cmpl	$65535, %eax                    # imm = 0xFFFF
	setne	%al
	cmpl	$0, 12(%rsp)
	sete	%cl
	andb	%al, %cl
	movzbl	%cl, %eax
	addq	$56, %rsp
	.cfi_def_cfa_offset 8
	retq
.LBB12_1:
	.cfi_def_cfa_offset 64
	movq	stderr@GOTPCREL(%rip), %rax
	movq	(%rax), %rdi
	leaq	.L.str(%rip), %rsi
	leaq	.L.str.1(%rip), %rdx
	leaq	.L.str.2(%rip), %r8
	movl	$230, %ecx
	jmp	.LBB12_2
.LBB12_4:
	movq	stderr@GOTPCREL(%rip), %rax
	movq	(%rax), %rdi
	leaq	.L.str(%rip), %rsi
	leaq	.L.str.1(%rip), %rdx
	leaq	.L.str.10(%rip), %r8
	movl	$231, %ecx
.LBB12_2:
	xorl	%eax, %eax
	callq	fprintf@PLT
	callq	abort@PLT
.Lfunc_end12:
	.size	secp256k1_ec_seckey_verify, .Lfunc_end12-secp256k1_ec_seckey_verify
	.cfi_endproc
                                        # -- End function
	.globl	secp256k1_ec_pubkey_verify      # -- Begin function secp256k1_ec_pubkey_verify
	.p2align	4, 0x90
	.type	secp256k1_ec_pubkey_verify,@function
secp256k1_ec_pubkey_verify:             # @secp256k1_ec_pubkey_verify
	.cfi_startproc
# %bb.0:
	subq	$88, %rsp
	.cfi_def_cfa_offset 96
	testq	%rdi, %rdi
	je	.LBB13_1
# %bb.3:
	testq	%rsi, %rsi
	je	.LBB13_4
# %bb.5:
	movq	%rsp, %rdi
	callq	secp256k1_eckey_pubkey_parse
	addq	$88, %rsp
	.cfi_def_cfa_offset 8
	retq
.LBB13_1:
	.cfi_def_cfa_offset 96
	movq	stderr@GOTPCREL(%rip), %rax
	movq	(%rax), %rdi
	leaq	.L.str(%rip), %rsi
	leaq	.L.str.1(%rip), %rdx
	leaq	.L.str.2(%rip), %r8
	movl	$242, %ecx
	jmp	.LBB13_2
.LBB13_4:
	movq	stderr@GOTPCREL(%rip), %rax
	movq	(%rax), %rdi
	leaq	.L.str(%rip), %rsi
	leaq	.L.str.1(%rip), %rdx
	leaq	.L.str.6(%rip), %r8
	movl	$243, %ecx
.LBB13_2:
	xorl	%eax, %eax
	callq	fprintf@PLT
	callq	abort@PLT
.Lfunc_end13:
	.size	secp256k1_ec_pubkey_verify, .Lfunc_end13-secp256k1_ec_pubkey_verify
	.cfi_endproc
                                        # -- End function
	.globl	secp256k1_ec_pubkey_create      # -- Begin function secp256k1_ec_pubkey_create
	.p2align	4, 0x90
	.type	secp256k1_ec_pubkey_create,@function
secp256k1_ec_pubkey_create:             # @secp256k1_ec_pubkey_create
	.cfi_startproc
# %bb.0:
	pushq	%rbp
	.cfi_def_cfa_offset 16
	pushq	%r15
	.cfi_def_cfa_offset 24
	pushq	%r14
	.cfi_def_cfa_offset 32
	pushq	%r13
	.cfi_def_cfa_offset 40
	pushq	%r12
	.cfi_def_cfa_offset 48
	pushq	%rbx
	.cfi_def_cfa_offset 56
	subq	$376, %rsp                      # imm = 0x178
	.cfi_def_cfa_offset 432
	.cfi_offset %rbx, -56
	.cfi_offset %r12, -48
	.cfi_offset %r13, -40
	.cfi_offset %r14, -32
	.cfi_offset %r15, -24
	.cfi_offset %rbp, -16
	testq	%rdi, %rdi
	je	.LBB14_1
# %bb.3:
	movq	%rdi, %rbx
	cmpq	$0, 8(%rdi)
	je	.LBB14_4
# %bb.5:
	movq	%rsi, %r15
	testq	%rsi, %rsi
	je	.LBB14_6
# %bb.7:
	movq	%rdx, %rbp
	testq	%rdx, %rdx
	je	.LBB14_8
# %bb.9:
	testq	%rcx, %rcx
	je	.LBB14_10
# %bb.11:
	movl	%r8d, %r14d
	leaq	48(%rsp), %rdi
	leaq	28(%rsp), %rdx
	movq	%rcx, %rsi
	callq	secp256k1_scalar_set_b32
	cmpl	$0, 28(%rsp)
	je	.LBB14_12
.LBB14_13:                              # %.thread
	movl	$0, (%rbp)
	xorl	%eax, %eax
	jmp	.LBB14_14
.LBB14_12:
	addq	$8, %rbx
	leaq	80(%rsp), %rsi
	leaq	48(%rsp), %rdx
	movq	%rbx, %rdi
	callq	secp256k1_ecmult_gen
	xorps	%xmm0, %xmm0
	movaps	%xmm0, 64(%rsp)
	movaps	%xmm0, 48(%rsp)
	movl	200(%rsp), %eax
	movl	%eax, 288(%rsp)
	leaq	160(%rsp), %rbx
	movq	%rbx, %rdi
	movq	%rbx, %rsi
	callq	secp256k1_fe_inv_var
	leaq	336(%rsp), %rdi
	movq	%rbx, %rsi
	movl	%r14d, 24(%rsp)                 # 4-byte Spill
	movq	%r15, 40(%rsp)                  # 8-byte Spill
	#APP
	movq	(%rsi), %r10
	movq	8(%rsi), %r11
	movq	16(%rsi), %r12
	movq	24(%rsi), %r13
	movq	32(%rsi), %r14
	movabsq	$4503599627370495, %r15         # imm = 0xFFFFFFFFFFFFF
	leaq	(%r10,%r10), %rax
	mulq	%r13
	movq	%rax, %rbx
	movq	%rdx, %rcx
	leaq	(%r11,%r11), %rax
	mulq	%r12
	addq	%rax, %rbx
	adcq	%rdx, %rcx
	movq	%r14, %rax
	mulq	%r14
	movq	%rax, %r8
	movq	%rdx, %r9
	andq	%r15, %rax
	movabsq	$68719492368, %rdx              # imm = 0x1000003D10
	mulq	%rdx
	addq	%rax, %rbx
	adcq	%rdx, %rcx
	shrdq	$52, %r9, %r8
	movq	%rbx, %rsi
	andq	%r15, %rsi
	movq	%rsi, 296(%rsp)
	shrdq	$52, %rcx, %rbx
	xorq	%rcx, %rcx
	addq	%r14, %r14
	movq	%r10, %rax
	mulq	%r14
	addq	%rax, %rbx
	adcq	%rdx, %rcx
	leaq	(%r11,%r11), %rax
	mulq	%r13
	addq	%rax, %rbx
	adcq	%rdx, %rcx
	movq	%r12, %rax
	mulq	%r12
	addq	%rax, %rbx
	adcq	%rdx, %rcx
	movq	%r8, %rax
	movabsq	$68719492368, %rdx              # imm = 0x1000003D10
	mulq	%rdx
	addq	%rax, %rbx
	adcq	%rdx, %rcx
	movq	%rbx, %rsi
	andq	%r15, %rsi
	shrdq	$52, %rcx, %rbx
	xorq	%rcx, %rcx
	movq	%rsi, %rax
	shrq	$48, %rax
	movq	%rax, 8(%rsp)
	movabsq	$281474976710655, %rax          # imm = 0xFFFFFFFFFFFF
	andq	%rax, %rsi
	movq	%rsi, 16(%rsp)
	movq	%r10, %rax
	mulq	%r10
	movq	%rax, %r8
	movq	%rdx, %r9
	movq	%r11, %rax
	mulq	%r14
	addq	%rax, %rbx
	adcq	%rdx, %rcx
	leaq	(%r12,%r12), %rax
	mulq	%r13
	addq	%rax, %rbx
	adcq	%rdx, %rcx
	movq	%rbx, %rsi
	andq	%r15, %rsi
	shrdq	$52, %rcx, %rbx
	xorq	%rcx, %rcx
	shlq	$4, %rsi
	movq	8(%rsp), %rax
	orq	%rax, %rsi
	movabsq	$4294968273, %rax               # imm = 0x1000003D1
	mulq	%rsi
	addq	%rax, %r8
	adcq	%rdx, %r9
	movq	%r8, %rax
	andq	%r15, %rax
	movq	%rax, (%rdi)
	shrdq	$52, %r9, %r8
	xorq	%r9, %r9
	addq	%r10, %r10
	movq	%r10, %rax
	mulq	%r11
	addq	%rax, %r8
	adcq	%rdx, %r9
	movq	%r12, %rax
	mulq	%r14
	addq	%rax, %rbx
	adcq	%rdx, %rcx
	movq	%r13, %rax
	mulq	%r13
	addq	%rax, %rbx
	adcq	%rdx, %rcx
	movq	%rbx, %rax
	andq	%r15, %rax
	movabsq	$68719492368, %rdx              # imm = 0x1000003D10
	mulq	%rdx
	addq	%rax, %r8
	adcq	%rdx, %r9
	shrdq	$52, %rcx, %rbx
	xorq	%rcx, %rcx
	movq	%r8, %rax
	andq	%r15, %rax
	movq	%rax, 8(%rdi)
	shrdq	$52, %r9, %r8
	xorq	%r9, %r9
	movq	%r10, %rax
	mulq	%r12
	addq	%rax, %r8
	adcq	%rdx, %r9
	movq	16(%rsp), %rsi
	movq	296(%rsp), %r10
	movq	%r11, %rax
	mulq	%r11
	addq	%rax, %r8
	adcq	%rdx, %r9
	movq	%r13, %rax
	mulq	%r14
	addq	%rax, %rbx
	adcq	%rdx, %rcx
	movq	%rbx, %rax
	andq	%r15, %rax
	movabsq	$68719492368, %rdx              # imm = 0x1000003D10
	mulq	%rdx
	addq	%rax, %r8
	adcq	%rdx, %r9
	shrdq	$52, %rcx, %rbx
	movq	%r8, %rax
	andq	%r15, %rax
	movq	%rax, 16(%rdi)
	shrdq	$52, %r9, %r8
	xorq	%r9, %r9
	addq	%r10, %r8
	movq	%rbx, %rax
	movabsq	$68719492368, %rdx              # imm = 0x1000003D10
	mulq	%rdx
	addq	%rax, %r8
	adcq	%rdx, %r9
	movq	%r8, %rax
	andq	%r15, %rax
	movq	%rax, 24(%rdi)
	shrdq	$52, %r9, %r8
	addq	%rsi, %r8
	movq	%r8, 32(%rdi)

	#NO_APP
	leaq	296(%rsp), %rdi
	leaq	336(%rsp), %rbx
	leaq	160(%rsp), %rsi
	#APP
	movq	(%rsi), %r10
	movq	8(%rsi), %r11
	movq	16(%rsi), %r12
	movq	24(%rsi), %r13
	movq	32(%rsi), %r14
	movq	(%rbx), %rax
	mulq	%r13
	movq	%rax, %rcx
	movq	%rdx, %r15
	movq	8(%rbx), %rax
	mulq	%r12
	addq	%rax, %rcx
	adcq	%rdx, %r15
	movq	16(%rbx), %rax
	mulq	%r11
	addq	%rax, %rcx
	adcq	%rdx, %r15
	movq	24(%rbx), %rax
	mulq	%r10
	addq	%rax, %rcx
	adcq	%rdx, %r15
	movq	32(%rbx), %rax
	mulq	%r14
	movq	%rax, %r8
	movq	%rdx, %r9
	movabsq	$4503599627370495, %rdx         # imm = 0xFFFFFFFFFFFFF
	andq	%rdx, %rax
	movabsq	$68719492368, %rdx              # imm = 0x1000003D10
	mulq	%rdx
	addq	%rax, %rcx
	adcq	%rdx, %r15
	shrdq	$52, %r9, %r8
	movq	%rcx, %rsi
	movabsq	$4503599627370495, %rdx         # imm = 0xFFFFFFFFFFFFF
	andq	%rdx, %rsi
	movq	%rsi, 16(%rsp)
	shrdq	$52, %r15, %rcx
	xorq	%r15, %r15
	movq	(%rbx), %rax
	mulq	%r14
	addq	%rax, %rcx
	adcq	%rdx, %r15
	movq	8(%rbx), %rax
	mulq	%r13
	addq	%rax, %rcx
	adcq	%rdx, %r15
	movq	16(%rbx), %rax
	mulq	%r12
	addq	%rax, %rcx
	adcq	%rdx, %r15
	movq	24(%rbx), %rax
	mulq	%r11
	addq	%rax, %rcx
	adcq	%rdx, %r15
	movq	32(%rbx), %rax
	mulq	%r10
	addq	%rax, %rcx
	adcq	%rdx, %r15
	movq	%r8, %rax
	movabsq	$68719492368, %rdx              # imm = 0x1000003D10
	mulq	%rdx
	addq	%rax, %rcx
	adcq	%rdx, %r15
	movq	%rcx, %rsi
	movabsq	$4503599627370495, %rdx         # imm = 0xFFFFFFFFFFFFF
	andq	%rdx, %rsi
	shrdq	$52, %r15, %rcx
	xorq	%r15, %r15
	movq	%rsi, %rax
	shrq	$48, %rax
	movq	%rax, 32(%rsp)
	movabsq	$281474976710655, %rax          # imm = 0xFFFFFFFFFFFF
	andq	%rax, %rsi
	movq	%rsi, 8(%rsp)
	movq	(%rbx), %rax
	mulq	%r10
	movq	%rax, %r8
	movq	%rdx, %r9
	movq	8(%rbx), %rax
	mulq	%r14
	addq	%rax, %rcx
	adcq	%rdx, %r15
	movq	16(%rbx), %rax
	mulq	%r13
	addq	%rax, %rcx
	adcq	%rdx, %r15
	movq	24(%rbx), %rax
	mulq	%r12
	addq	%rax, %rcx
	adcq	%rdx, %r15
	movq	32(%rbx), %rax
	mulq	%r11
	addq	%rax, %rcx
	adcq	%rdx, %r15
	movq	%rcx, %rsi
	movabsq	$4503599627370495, %rdx         # imm = 0xFFFFFFFFFFFFF
	andq	%rdx, %rsi
	shrdq	$52, %r15, %rcx
	xorq	%r15, %r15
	shlq	$4, %rsi
	movq	32(%rsp), %rax
	orq	%rax, %rsi
	movabsq	$4294968273, %rax               # imm = 0x1000003D1
	mulq	%rsi
	addq	%rax, %r8
	adcq	%rdx, %r9
	movq	%r8, %rax
	movabsq	$4503599627370495, %rdx         # imm = 0xFFFFFFFFFFFFF
	andq	%rdx, %rax
	movq	%rax, (%rdi)
	shrdq	$52, %r9, %r8
	xorq	%r9, %r9
	movq	(%rbx), %rax
	mulq	%r11
	addq	%rax, %r8
	adcq	%rdx, %r9
	movq	8(%rbx), %rax
	mulq	%r10
	addq	%rax, %r8
	adcq	%rdx, %r9
	movq	16(%rbx), %rax
	mulq	%r14
	addq	%rax, %rcx
	adcq	%rdx, %r15
	movq	24(%rbx), %rax
	mulq	%r13
	addq	%rax, %rcx
	adcq	%rdx, %r15
	movq	32(%rbx), %rax
	mulq	%r12
	addq	%rax, %rcx
	adcq	%rdx, %r15
	movq	%rcx, %rax
	movabsq	$4503599627370495, %rdx         # imm = 0xFFFFFFFFFFFFF
	andq	%rdx, %rax
	movabsq	$68719492368, %rdx              # imm = 0x1000003D10
	mulq	%rdx
	addq	%rax, %r8
	adcq	%rdx, %r9
	shrdq	$52, %r15, %rcx
	xorq	%r15, %r15
	movq	%r8, %rax
	movabsq	$4503599627370495, %rdx         # imm = 0xFFFFFFFFFFFFF
	andq	%rdx, %rax
	movq	%rax, 8(%rdi)
	shrdq	$52, %r9, %r8
	xorq	%r9, %r9
	movq	(%rbx), %rax
	mulq	%r12
	addq	%rax, %r8
	adcq	%rdx, %r9
	movq	8(%rbx), %rax
	mulq	%r11
	addq	%rax, %r8
	adcq	%rdx, %r9
	movq	16(%rbx), %rax
	mulq	%r10
	addq	%rax, %r8
	adcq	%rdx, %r9
	movq	8(%rsp), %rsi
	movq	16(%rsp), %r10
	movq	24(%rbx), %rax
	mulq	%r14
	addq	%rax, %rcx
	adcq	%rdx, %r15
	movq	32(%rbx), %rax
	mulq	%r13
	addq	%rax, %rcx
	adcq	%rdx, %r15
	movq	%rcx, %rax
	movabsq	$4503599627370495, %rdx         # imm = 0xFFFFFFFFFFFFF
	andq	%rdx, %rax
	movabsq	$68719492368, %rdx              # imm = 0x1000003D10
	mulq	%rdx
	addq	%rax, %r8
	adcq	%rdx, %r9
	shrdq	$52, %r15, %rcx
	movq	%r8, %rax
	movabsq	$4503599627370495, %rdx         # imm = 0xFFFFFFFFFFFFF
	andq	%rdx, %rax
	movq	%rax, 16(%rdi)
	shrdq	$52, %r9, %r8
	xorq	%r9, %r9
	addq	%r10, %r8
	movq	%rcx, %rax
	movabsq	$68719492368, %rdx              # imm = 0x1000003D10
	mulq	%rdx
	addq	%rax, %r8
	adcq	%rdx, %r9
	movq	%r8, %rax
	movabsq	$4503599627370495, %rdx         # imm = 0xFFFFFFFFFFFFF
	andq	%rdx, %rax
	movq	%rax, 24(%rdi)
	shrdq	$52, %r9, %r8
	addq	%rsi, %r8
	movq	%r8, 32(%rdi)

	#NO_APP
	leaq	336(%rsp), %rbx
	leaq	80(%rsp), %rdi
	movq	%rdi, %rsi
	#APP
	movq	(%rsi), %r10
	movq	8(%rsi), %r11
	movq	16(%rsi), %r12
	movq	24(%rsi), %r13
	movq	32(%rsi), %r14
	movq	(%rbx), %rax
	mulq	%r13
	movq	%rax, %rcx
	movq	%rdx, %r15
	movq	8(%rbx), %rax
	mulq	%r12
	addq	%rax, %rcx
	adcq	%rdx, %r15
	movq	16(%rbx), %rax
	mulq	%r11
	addq	%rax, %rcx
	adcq	%rdx, %r15
	movq	24(%rbx), %rax
	mulq	%r10
	addq	%rax, %rcx
	adcq	%rdx, %r15
	movq	32(%rbx), %rax
	mulq	%r14
	movq	%rax, %r8
	movq	%rdx, %r9
	movabsq	$4503599627370495, %rdx         # imm = 0xFFFFFFFFFFFFF
	andq	%rdx, %rax
	movabsq	$68719492368, %rdx              # imm = 0x1000003D10
	mulq	%rdx
	addq	%rax, %rcx
	adcq	%rdx, %r15
	shrdq	$52, %r9, %r8
	movq	%rcx, %rsi
	movabsq	$4503599627370495, %rdx         # imm = 0xFFFFFFFFFFFFF
	andq	%rdx, %rsi
	movq	%rsi, 16(%rsp)
	shrdq	$52, %r15, %rcx
	xorq	%r15, %r15
	movq	(%rbx), %rax
	mulq	%r14
	addq	%rax, %rcx
	adcq	%rdx, %r15
	movq	8(%rbx), %rax
	mulq	%r13
	addq	%rax, %rcx
	adcq	%rdx, %r15
	movq	16(%rbx), %rax
	mulq	%r12
	addq	%rax, %rcx
	adcq	%rdx, %r15
	movq	24(%rbx), %rax
	mulq	%r11
	addq	%rax, %rcx
	adcq	%rdx, %r15
	movq	32(%rbx), %rax
	mulq	%r10
	addq	%rax, %rcx
	adcq	%rdx, %r15
	movq	%r8, %rax
	movabsq	$68719492368, %rdx              # imm = 0x1000003D10
	mulq	%rdx
	addq	%rax, %rcx
	adcq	%rdx, %r15
	movq	%rcx, %rsi
	movabsq	$4503599627370495, %rdx         # imm = 0xFFFFFFFFFFFFF
	andq	%rdx, %rsi
	shrdq	$52, %r15, %rcx
	xorq	%r15, %r15
	movq	%rsi, %rax
	shrq	$48, %rax
	movq	%rax, 32(%rsp)
	movabsq	$281474976710655, %rax          # imm = 0xFFFFFFFFFFFF
	andq	%rax, %rsi
	movq	%rsi, 8(%rsp)
	movq	(%rbx), %rax
	mulq	%r10
	movq	%rax, %r8
	movq	%rdx, %r9
	movq	8(%rbx), %rax
	mulq	%r14
	addq	%rax, %rcx
	adcq	%rdx, %r15
	movq	16(%rbx), %rax
	mulq	%r13
	addq	%rax, %rcx
	adcq	%rdx, %r15
	movq	24(%rbx), %rax
	mulq	%r12
	addq	%rax, %rcx
	adcq	%rdx, %r15
	movq	32(%rbx), %rax
	mulq	%r11
	addq	%rax, %rcx
	adcq	%rdx, %r15
	movq	%rcx, %rsi
	movabsq	$4503599627370495, %rdx         # imm = 0xFFFFFFFFFFFFF
	andq	%rdx, %rsi
	shrdq	$52, %r15, %rcx
	xorq	%r15, %r15
	shlq	$4, %rsi
	movq	32(%rsp), %rax
	orq	%rax, %rsi
	movabsq	$4294968273, %rax               # imm = 0x1000003D1
	mulq	%rsi
	addq	%rax, %r8
	adcq	%rdx, %r9
	movq	%r8, %rax
	movabsq	$4503599627370495, %rdx         # imm = 0xFFFFFFFFFFFFF
	andq	%rdx, %rax
	movq	%rax, (%rdi)
	shrdq	$52, %r9, %r8
	xorq	%r9, %r9
	movq	(%rbx), %rax
	mulq	%r11
	addq	%rax, %r8
	adcq	%rdx, %r9
	movq	8(%rbx), %rax
	mulq	%r10
	addq	%rax, %r8
	adcq	%rdx, %r9
	movq	16(%rbx), %rax
	mulq	%r14
	addq	%rax, %rcx
	adcq	%rdx, %r15
	movq	24(%rbx), %rax
	mulq	%r13
	addq	%rax, %rcx
	adcq	%rdx, %r15
	movq	32(%rbx), %rax
	mulq	%r12
	addq	%rax, %rcx
	adcq	%rdx, %r15
	movq	%rcx, %rax
	movabsq	$4503599627370495, %rdx         # imm = 0xFFFFFFFFFFFFF
	andq	%rdx, %rax
	movabsq	$68719492368, %rdx              # imm = 0x1000003D10
	mulq	%rdx
	addq	%rax, %r8
	adcq	%rdx, %r9
	shrdq	$52, %r15, %rcx
	xorq	%r15, %r15
	movq	%r8, %rax
	movabsq	$4503599627370495, %rdx         # imm = 0xFFFFFFFFFFFFF
	andq	%rdx, %rax
	movq	%rax, 8(%rdi)
	shrdq	$52, %r9, %r8
	xorq	%r9, %r9
	movq	(%rbx), %rax
	mulq	%r12
	addq	%rax, %r8
	adcq	%rdx, %r9
	movq	8(%rbx), %rax
	mulq	%r11
	addq	%rax, %r8
	adcq	%rdx, %r9
	movq	16(%rbx), %rax
	mulq	%r10
	addq	%rax, %r8
	adcq	%rdx, %r9
	movq	8(%rsp), %rsi
	movq	16(%rsp), %r10
	movq	24(%rbx), %rax
	mulq	%r14
	addq	%rax, %rcx
	adcq	%rdx, %r15
	movq	32(%rbx), %rax
	mulq	%r13
	addq	%rax, %rcx
	adcq	%rdx, %r15
	movq	%rcx, %rax
	movabsq	$4503599627370495, %rdx         # imm = 0xFFFFFFFFFFFFF
	andq	%rdx, %rax
	movabsq	$68719492368, %rdx              # imm = 0x1000003D10
	mulq	%rdx
	addq	%rax, %r8
	adcq	%rdx, %r9
	shrdq	$52, %r15, %rcx
	movq	%r8, %rax
	movabsq	$4503599627370495, %rdx         # imm = 0xFFFFFFFFFFFFF
	andq	%rdx, %rax
	movq	%rax, 16(%rdi)
	shrdq	$52, %r9, %r8
	xorq	%r9, %r9
	addq	%r10, %r8
	movq	%rcx, %rax
	movabsq	$68719492368, %rdx              # imm = 0x1000003D10
	mulq	%rdx
	addq	%rax, %r8
	adcq	%rdx, %r9
	movq	%r8, %rax
	movabsq	$4503599627370495, %rdx         # imm = 0xFFFFFFFFFFFFF
	andq	%rdx, %rax
	movq	%rax, 24(%rdi)
	shrdq	$52, %r9, %r8
	addq	%rsi, %r8
	movq	%r8, 32(%rdi)

	#NO_APP
	leaq	120(%rsp), %rdi
	leaq	296(%rsp), %rbx
	movq	%rdi, %rsi
	#APP
	movq	(%rsi), %r10
	movq	8(%rsi), %r11
	movq	16(%rsi), %r12
	movq	24(%rsi), %r13
	movq	32(%rsi), %r14
	movq	(%rbx), %rax
	mulq	%r13
	movq	%rax, %rcx
	movq	%rdx, %r15
	movq	8(%rbx), %rax
	mulq	%r12
	addq	%rax, %rcx
	adcq	%rdx, %r15
	movq	16(%rbx), %rax
	mulq	%r11
	addq	%rax, %rcx
	adcq	%rdx, %r15
	movq	24(%rbx), %rax
	mulq	%r10
	addq	%rax, %rcx
	adcq	%rdx, %r15
	movq	32(%rbx), %rax
	mulq	%r14
	movq	%rax, %r8
	movq	%rdx, %r9
	movabsq	$4503599627370495, %rdx         # imm = 0xFFFFFFFFFFFFF
	andq	%rdx, %rax
	movabsq	$68719492368, %rdx              # imm = 0x1000003D10
	mulq	%rdx
	addq	%rax, %rcx
	adcq	%rdx, %r15
	shrdq	$52, %r9, %r8
	movq	%rcx, %rsi
	movabsq	$4503599627370495, %rdx         # imm = 0xFFFFFFFFFFFFF
	andq	%rdx, %rsi
	movq	%rsi, 16(%rsp)
	shrdq	$52, %r15, %rcx
	xorq	%r15, %r15
	movq	(%rbx), %rax
	mulq	%r14
	addq	%rax, %rcx
	adcq	%rdx, %r15
	movq	8(%rbx), %rax
	mulq	%r13
	addq	%rax, %rcx
	adcq	%rdx, %r15
	movq	16(%rbx), %rax
	mulq	%r12
	addq	%rax, %rcx
	adcq	%rdx, %r15
	movq	24(%rbx), %rax
	mulq	%r11
	addq	%rax, %rcx
	adcq	%rdx, %r15
	movq	32(%rbx), %rax
	mulq	%r10
	addq	%rax, %rcx
	adcq	%rdx, %r15
	movq	%r8, %rax
	movabsq	$68719492368, %rdx              # imm = 0x1000003D10
	mulq	%rdx
	addq	%rax, %rcx
	adcq	%rdx, %r15
	movq	%rcx, %rsi
	movabsq	$4503599627370495, %rdx         # imm = 0xFFFFFFFFFFFFF
	andq	%rdx, %rsi
	shrdq	$52, %r15, %rcx
	xorq	%r15, %r15
	movq	%rsi, %rax
	shrq	$48, %rax
	movq	%rax, 32(%rsp)
	movabsq	$281474976710655, %rax          # imm = 0xFFFFFFFFFFFF
	andq	%rax, %rsi
	movq	%rsi, 8(%rsp)
	movq	(%rbx), %rax
	mulq	%r10
	movq	%rax, %r8
	movq	%rdx, %r9
	movq	8(%rbx), %rax
	mulq	%r14
	addq	%rax, %rcx
	adcq	%rdx, %r15
	movq	16(%rbx), %rax
	mulq	%r13
	addq	%rax, %rcx
	adcq	%rdx, %r15
	movq	24(%rbx), %rax
	mulq	%r12
	addq	%rax, %rcx
	adcq	%rdx, %r15
	movq	32(%rbx), %rax
	mulq	%r11
	addq	%rax, %rcx
	adcq	%rdx, %r15
	movq	%rcx, %rsi
	movabsq	$4503599627370495, %rdx         # imm = 0xFFFFFFFFFFFFF
	andq	%rdx, %rsi
	shrdq	$52, %r15, %rcx
	xorq	%r15, %r15
	shlq	$4, %rsi
	movq	32(%rsp), %rax
	orq	%rax, %rsi
	movabsq	$4294968273, %rax               # imm = 0x1000003D1
	mulq	%rsi
	addq	%rax, %r8
	adcq	%rdx, %r9
	movq	%r8, %rax
	movabsq	$4503599627370495, %rdx         # imm = 0xFFFFFFFFFFFFF
	andq	%rdx, %rax
	movq	%rax, (%rdi)
	shrdq	$52, %r9, %r8
	xorq	%r9, %r9
	movq	(%rbx), %rax
	mulq	%r11
	addq	%rax, %r8
	adcq	%rdx, %r9
	movq	8(%rbx), %rax
	mulq	%r10
	addq	%rax, %r8
	adcq	%rdx, %r9
	movq	16(%rbx), %rax
	mulq	%r14
	addq	%rax, %rcx
	adcq	%rdx, %r15
	movq	24(%rbx), %rax
	mulq	%r13
	addq	%rax, %rcx
	adcq	%rdx, %r15
	movq	32(%rbx), %rax
	mulq	%r12
	addq	%rax, %rcx
	adcq	%rdx, %r15
	movq	%rcx, %rax
	movabsq	$4503599627370495, %rdx         # imm = 0xFFFFFFFFFFFFF
	andq	%rdx, %rax
	movabsq	$68719492368, %rdx              # imm = 0x1000003D10
	mulq	%rdx
	addq	%rax, %r8
	adcq	%rdx, %r9
	shrdq	$52, %r15, %rcx
	xorq	%r15, %r15
	movq	%r8, %rax
	movabsq	$4503599627370495, %rdx         # imm = 0xFFFFFFFFFFFFF
	andq	%rdx, %rax
	movq	%rax, 8(%rdi)
	shrdq	$52, %r9, %r8
	xorq	%r9, %r9
	movq	(%rbx), %rax
	mulq	%r12
	addq	%rax, %r8
	adcq	%rdx, %r9
	movq	8(%rbx), %rax
	mulq	%r11
	addq	%rax, %r8
	adcq	%rdx, %r9
	movq	16(%rbx), %rax
	mulq	%r10
	addq	%rax, %r8
	adcq	%rdx, %r9
	movq	8(%rsp), %rsi
	movq	16(%rsp), %r10
	movq	24(%rbx), %rax
	mulq	%r14
	addq	%rax, %rcx
	adcq	%rdx, %r15
	movq	32(%rbx), %rax
	mulq	%r13
	addq	%rax, %rcx
	adcq	%rdx, %r15
	movq	%rcx, %rax
	movabsq	$4503599627370495, %rdx         # imm = 0xFFFFFFFFFFFFF
	andq	%rdx, %rax
	movabsq	$68719492368, %rdx              # imm = 0x1000003D10
	mulq	%rdx
	addq	%rax, %r8
	adcq	%rdx, %r9
	shrdq	$52, %r15, %rcx
	movq	%r8, %rax
	movabsq	$4503599627370495, %rdx         # imm = 0xFFFFFFFFFFFFF
	andq	%rdx, %rax
	movq	%rax, 16(%rdi)
	shrdq	$52, %r9, %r8
	xorq	%r9, %r9
	addq	%r10, %r8
	movq	%rcx, %rax
	movabsq	$68719492368, %rdx              # imm = 0x1000003D10
	mulq	%rdx
	addq	%rax, %r8
	adcq	%rdx, %r9
	movq	%r8, %rax
	movabsq	$4503599627370495, %rdx         # imm = 0xFFFFFFFFFFFFF
	andq	%rdx, %rax
	movq	%rax, 24(%rdi)
	shrdq	$52, %r9, %r8
	addq	%rsi, %r8
	movq	%r8, 32(%rdi)

	#NO_APP
	movq	$1, 160(%rsp)
	xorps	%xmm0, %xmm0
	movups	%xmm0, 168(%rsp)
	movups	%xmm0, 184(%rsp)
	movups	80(%rsp), %xmm0
	movups	96(%rsp), %xmm1
	movaps	%xmm0, 208(%rsp)
	movaps	%xmm1, 224(%rsp)
	movq	112(%rsp), %rax
	movq	%rax, 240(%rsp)
	movups	120(%rsp), %xmm0
	movups	%xmm0, 248(%rsp)
	movups	136(%rsp), %xmm0
	movups	%xmm0, 264(%rsp)
	movq	152(%rsp), %rax
	movq	%rax, 280(%rsp)
	leaq	208(%rsp), %rdi
	movq	40(%rsp), %rsi                  # 8-byte Reload
	movq	%rbp, %rdx
	movl	24(%rsp), %ecx                  # 4-byte Reload
	callq	secp256k1_eckey_pubkey_serialize
	testl	%eax, %eax
	je	.LBB14_13
.LBB14_14:
	addq	$376, %rsp                      # imm = 0x178
	.cfi_def_cfa_offset 56
	popq	%rbx
	.cfi_def_cfa_offset 48
	popq	%r12
	.cfi_def_cfa_offset 40
	popq	%r13
	.cfi_def_cfa_offset 32
	popq	%r14
	.cfi_def_cfa_offset 24
	popq	%r15
	.cfi_def_cfa_offset 16
	popq	%rbp
	.cfi_def_cfa_offset 8
	retq
.LBB14_1:
	.cfi_def_cfa_offset 432
	movq	stderr@GOTPCREL(%rip), %rax
	movq	(%rax), %rdi
	leaq	.L.str(%rip), %rsi
	leaq	.L.str.1(%rip), %rdx
	leaq	.L.str.2(%rip), %r8
	movl	$255, %ecx
	jmp	.LBB14_2
.LBB14_4:
	movq	stderr@GOTPCREL(%rip), %rax
	movq	(%rax), %rdi
	leaq	.L.str(%rip), %rsi
	leaq	.L.str.1(%rip), %rdx
	leaq	.L.str.7(%rip), %r8
	movl	$256, %ecx                      # imm = 0x100
	jmp	.LBB14_2
.LBB14_6:
	movq	stderr@GOTPCREL(%rip), %rax
	movq	(%rax), %rdi
	leaq	.L.str(%rip), %rsi
	leaq	.L.str.1(%rip), %rdx
	leaq	.L.str.6(%rip), %r8
	movl	$257, %ecx                      # imm = 0x101
	jmp	.LBB14_2
.LBB14_8:
	movq	stderr@GOTPCREL(%rip), %rax
	movq	(%rax), %rdi
	leaq	.L.str(%rip), %rsi
	leaq	.L.str.1(%rip), %rdx
	leaq	.L.str.12(%rip), %r8
	movl	$258, %ecx                      # imm = 0x102
	jmp	.LBB14_2
.LBB14_10:
	movq	stderr@GOTPCREL(%rip), %rax
	movq	(%rax), %rdi
	leaq	.L.str(%rip), %rsi
	leaq	.L.str.1(%rip), %rdx
	leaq	.L.str.10(%rip), %r8
	movl	$259, %ecx                      # imm = 0x103
.LBB14_2:
	xorl	%eax, %eax
	callq	fprintf@PLT
	callq	abort@PLT
.Lfunc_end14:
	.size	secp256k1_ec_pubkey_create, .Lfunc_end14-secp256k1_ec_pubkey_create
	.cfi_endproc
                                        # -- End function
	.p2align	4, 0x90                         # -- Begin function secp256k1_ecmult_gen
	.type	secp256k1_ecmult_gen,@function
secp256k1_ecmult_gen:                   # @secp256k1_ecmult_gen
	.cfi_startproc
# %bb.0:
	pushq	%rbp
	.cfi_def_cfa_offset 16
	pushq	%r15
	.cfi_def_cfa_offset 24
	pushq	%r14
	.cfi_def_cfa_offset 32
	pushq	%r13
	.cfi_def_cfa_offset 40
	pushq	%r12
	.cfi_def_cfa_offset 48
	pushq	%rbx
	.cfi_def_cfa_offset 56
	subq	$168, %rsp
	.cfi_def_cfa_offset 224
	.cfi_offset %rbx, -56
	.cfi_offset %r12, -48
	.cfi_offset %r13, -40
	.cfi_offset %r14, -32
	.cfi_offset %r15, -24
	.cfi_offset %rbp, -16
	movups	152(%rdi), %xmm0
	movups	%xmm0, 112(%rsi)
	movups	136(%rdi), %xmm0
	movups	%xmm0, 96(%rsi)
	movups	120(%rdi), %xmm0
	movups	%xmm0, 80(%rsi)
	movups	104(%rdi), %xmm0
	movups	%xmm0, 64(%rsi)
	movups	40(%rdi), %xmm0
	movups	56(%rdi), %xmm1
	movups	72(%rdi), %xmm2
	movups	88(%rdi), %xmm3
	movups	%xmm3, 48(%rsi)
	movups	%xmm2, 32(%rsi)
	movups	%xmm1, 16(%rsi)
	movq	%rsi, 16(%rsp)                  # 8-byte Spill
	movups	%xmm0, (%rsi)
	movq	8(%rdi), %r9
	addq	(%rdx), %r9
	movq	8(%rdx), %r11
	adcq	$0, %r11
	setb	%bl
	addq	16(%rdi), %r11
	movzbl	%bl, %esi
	adcq	16(%rdx), %rsi
	movq	32(%rdi), %rbp
	setb	%bl
	movzbl	%bl, %ebx
	xorl	%r14d, %r14d
	addq	24(%rdx), %rbp
	setb	%r14b
	movq	%rdi, 8(%rsp)                   # 8-byte Spill
	addq	24(%rdi), %rsi
	adcq	%rbx, %rbp
	setb	%r8b
	cmpq	$-1, %rbp
	setne	%bl
	cmpq	$-2, %rsi
	setb	%dl
	orb	%bl, %dl
	movzbl	%dl, %eax
	xorl	%ebx, %ebx
	cmpq	$-1, %rsi
	sete	%bl
	movl	%eax, %edx
	notl	%edx
	andl	%ebx, %edx
	movabsq	$-4994812053365940165, %r10     # imm = 0xBAAEDCE6AF48A03B
	xorl	%ebx, %ebx
	cmpq	%r10, %r11
	setb	%cl
	seta	%bl
	orb	%cl, %al
	movzbl	%al, %eax
	notl	%eax
	andl	%eax, %ebx
	orl	%edx, %ebx
	movabsq	$-4624529908474429120, %rcx     # imm = 0xBFD25E8CD0364140
	xorl	%edx, %edx
	cmpq	%rcx, %r9
	seta	%dl
	andl	%eax, %edx
	orl	%ebx, %edx
	addb	$255, %r8b
	adcl	%edx, %r14d
	movabsq	$4624529908474429119, %rax      # imm = 0x402DA1732FC9BEBF
	imulq	%r14, %rax
	movabsq	$4994812053365940164, %rcx      # imm = 0x4551231950B75FC4
	imulq	%r14, %rcx
	addq	%r9, %rax
	movq	%rax, 48(%rsp)
	adcq	%r11, %rcx
	movq	%rcx, 56(%rsp)
	adcq	%r14, %rsi
	adcq	$0, %rbp
	movq	%rsi, 64(%rsp)
	movq	%rbp, 72(%rsp)
	xorl	%edx, %edx
	xorl	%r15d, %r15d
	xorl	%r13d, %r13d
	xorl	%r14d, %r14d
	xorl	%r12d, %r12d
	xorl	%ebp, %ebp
	xorl	%r8d, %r8d
	xorl	%ebx, %ebx
	xorl	%esi, %esi
	jmp	.LBB15_1
	.p2align	4, 0x90
.LBB15_5:                               #   in Loop: Header=BB15_1 Depth=1
	movabsq	$4503599610593280, %rdi         # imm = 0xFFFFFFF000000
	leaq	16777215(%rdi), %rax
	movq	%rsi, %rcx
	andq	%rax, %rcx
	movq	%rcx, 80(%rsp)
	movq	%rsi, %rdx
	shrq	$52, %rdx
	movq	%rsi, 24(%rsp)                  # 8-byte Spill
	movq	%rbx, %rsi
	shlq	$12, %rsi
	leaq	16773120(%rdi), %rcx
	andq	%rcx, %rsi
	orq	%rdx, %rsi
	movq	%rsi, 88(%rsp)
	movq	%rbx, %rdx
	shrq	$40, %rdx
	movq	%r8, %rsi
	shlq	$24, %rsi
	andq	%rdi, %rsi
	orq	%rdx, %rsi
	movq	%rsi, 96(%rsp)
	movq	%r8, %rdx
	shrq	$28, %rdx
	movq	%rbp, %rsi
	shlq	$36, %rsi
	movq	%rbx, 32(%rsp)                  # 8-byte Spill
	movq	%r8, %rbx
	movabsq	$4503530907893760, %r8          # imm = 0xFFFF000000000
	andq	%r8, %rsi
	orq	%rdx, %rsi
	movq	%rsi, 104(%rsp)
	movq	%rbp, %rdx
	shrq	$16, %rdx
	movq	%rdx, 112(%rsp)
	andq	%r12, %rax
	movq	%rax, 120(%rsp)
	movq	%r12, %rax
	shrq	$52, %rax
	movq	%r14, %rdx
	shlq	$12, %rdx
	andq	%rcx, %rdx
	orq	%rax, %rdx
	movq	%rdx, 128(%rsp)
	movq	%r14, %rax
	shrq	$40, %rax
	movq	%r13, %rcx
	shlq	$24, %rcx
	andq	%rdi, %rcx
	orq	%rax, %rcx
	movq	%rcx, 136(%rsp)
	movq	%r13, %rax
	shrq	$28, %rax
	movq	%r15, %rcx
	shlq	$36, %rcx
	andq	%r8, %rcx
	orq	%rax, %rcx
	movq	%rcx, 144(%rsp)
	movq	%r15, %rax
	shrq	$16, %rax
	movq	%rax, 152(%rsp)
	movl	$0, 160(%rsp)
	movq	16(%rsp), %rdi                  # 8-byte Reload
	movq	%rdi, %rsi
	leaq	80(%rsp), %rdx
	callq	secp256k1_gej_add_ge
	movq	24(%rsp), %rsi                  # 8-byte Reload
	movq	%rbx, %r8
	movq	32(%rsp), %rbx                  # 8-byte Reload
	movq	40(%rsp), %rdx                  # 8-byte Reload
	addq	$1, %rdx
	cmpq	$64, %rdx
	je	.LBB15_6
.LBB15_1:                               # =>This Loop Header: Depth=1
                                        #     Child Loop BB15_2 Depth 2
	movq	%rdx, %rax
	shrq	%rax
	andl	$2147483640, %eax               # imm = 0x7FFFFFF8
	movq	48(%rsp,%rax), %rax
	leal	(,%rdx,4), %ecx
                                        # kill: def $cl killed $cl killed $ecx
	shrq	%cl, %rax
	andl	$15, %eax
	movq	8(%rsp), %rcx                   # 8-byte Reload
	movq	(%rcx), %rcx
	shlq	$6, %rax
	movq	%rdx, 40(%rsp)                  # 8-byte Spill
	shlq	$10, %rdx
	addq	%rdx, %rcx
	addq	$56, %rcx
	xorl	%edx, %edx
	jmp	.LBB15_2
	.p2align	4, 0x90
.LBB15_4:                               #   in Loop: Header=BB15_2 Depth=2
	addq	$64, %rdx
	cmpq	$1024, %rdx                     # imm = 0x400
	je	.LBB15_5
.LBB15_2:                               #   Parent Loop BB15_1 Depth=1
                                        # =>  This Inner Loop Header: Depth=2
	cmpq	%rdx, %rax
	jne	.LBB15_4
# %bb.3:                                #   in Loop: Header=BB15_2 Depth=2
	movq	-56(%rcx,%rdx), %rsi
	movq	-48(%rcx,%rdx), %rbx
	movq	-40(%rcx,%rdx), %r8
	movq	-32(%rcx,%rdx), %rbp
	movq	-24(%rcx,%rdx), %r12
	movq	-16(%rcx,%rdx), %r14
	movq	-8(%rcx,%rdx), %r13
	movq	(%rcx,%rdx), %r15
	jmp	.LBB15_4
.LBB15_6:
	addq	$168, %rsp
	.cfi_def_cfa_offset 56
	popq	%rbx
	.cfi_def_cfa_offset 48
	popq	%r12
	.cfi_def_cfa_offset 40
	popq	%r13
	.cfi_def_cfa_offset 32
	popq	%r14
	.cfi_def_cfa_offset 24
	popq	%r15
	.cfi_def_cfa_offset 16
	popq	%rbp
	.cfi_def_cfa_offset 8
	retq
.Lfunc_end15:
	.size	secp256k1_ecmult_gen, .Lfunc_end15-secp256k1_ecmult_gen
	.cfi_endproc
                                        # -- End function
	.globl	secp256k1_ec_pubkey_decompress  # -- Begin function secp256k1_ec_pubkey_decompress
	.p2align	4, 0x90
	.type	secp256k1_ec_pubkey_decompress,@function
secp256k1_ec_pubkey_decompress:         # @secp256k1_ec_pubkey_decompress
	.cfi_startproc
# %bb.0:
	pushq	%r14
	.cfi_def_cfa_offset 16
	pushq	%rbx
	.cfi_def_cfa_offset 24
	subq	$88, %rsp
	.cfi_def_cfa_offset 112
	.cfi_offset %rbx, -24
	.cfi_offset %r14, -16
	testq	%rsi, %rsi
	je	.LBB16_1
# %bb.3:
	movq	%rdx, %r14
	testq	%rdx, %rdx
	je	.LBB16_4
# %bb.5:
	movq	%rsi, %rbx
	movl	(%r14), %edx
	movq	%rsp, %rdi
	callq	secp256k1_eckey_pubkey_parse
	testl	%eax, %eax
	je	.LBB16_6
# %bb.7:
	movq	%rsp, %rdi
	movq	%rbx, %rsi
	movq	%r14, %rdx
	xorl	%ecx, %ecx
	callq	secp256k1_eckey_pubkey_serialize
	addq	$88, %rsp
	.cfi_def_cfa_offset 24
	popq	%rbx
	.cfi_def_cfa_offset 16
	popq	%r14
	.cfi_def_cfa_offset 8
	retq
.LBB16_6:
	.cfi_def_cfa_offset 112
	xorl	%eax, %eax
	addq	$88, %rsp
	.cfi_def_cfa_offset 24
	popq	%rbx
	.cfi_def_cfa_offset 16
	popq	%r14
	.cfi_def_cfa_offset 8
	retq
.LBB16_1:
	.cfi_def_cfa_offset 112
	movq	stderr@GOTPCREL(%rip), %rax
	movq	(%rax), %rdi
	leaq	.L.str(%rip), %rsi
	leaq	.L.str.1(%rip), %rdx
	leaq	.L.str.6(%rip), %r8
	movl	$277, %ecx                      # imm = 0x115
	jmp	.LBB16_2
.LBB16_4:
	movq	stderr@GOTPCREL(%rip), %rax
	movq	(%rax), %rdi
	leaq	.L.str(%rip), %rsi
	leaq	.L.str.1(%rip), %rdx
	leaq	.L.str.12(%rip), %r8
	movl	$278, %ecx                      # imm = 0x116
.LBB16_2:
	xorl	%eax, %eax
	callq	fprintf@PLT
	callq	abort@PLT
.Lfunc_end16:
	.size	secp256k1_ec_pubkey_decompress, .Lfunc_end16-secp256k1_ec_pubkey_decompress
	.cfi_endproc
                                        # -- End function
	.globl	secp256k1_ec_privkey_tweak_add  # -- Begin function secp256k1_ec_privkey_tweak_add
	.p2align	4, 0x90
	.type	secp256k1_ec_privkey_tweak_add,@function
secp256k1_ec_privkey_tweak_add:         # @secp256k1_ec_privkey_tweak_add
	.cfi_startproc
# %bb.0:
	pushq	%rbp
	.cfi_def_cfa_offset 16
	pushq	%r14
	.cfi_def_cfa_offset 24
	pushq	%rbx
	.cfi_def_cfa_offset 32
	subq	$80, %rsp
	.cfi_def_cfa_offset 112
	.cfi_offset %rbx, -32
	.cfi_offset %r14, -24
	.cfi_offset %rbp, -16
	movl	$0, 12(%rsp)
	testq	%rdi, %rdi
	je	.LBB17_1
# %bb.3:
	movq	%rsi, %rbp
	testq	%rsi, %rsi
	je	.LBB17_4
# %bb.5:
	testq	%rdx, %rdx
	je	.LBB17_6
# %bb.7:
	leaq	48(%rsp), %rdi
	leaq	12(%rsp), %rax
	movq	%rdx, %rsi
	movq	%rax, %rdx
	callq	secp256k1_scalar_set_b32
	leaq	16(%rsp), %rdi
	movq	%rbp, %rsi
	xorl	%edx, %edx
	callq	secp256k1_scalar_set_b32
	movq	48(%rsp), %r11
	addq	16(%rsp), %r11
	movq	24(%rsp), %r14
	adcq	$0, %r14
	setb	%al
	addq	56(%rsp), %r14
	movzbl	%al, %eax
	adcq	32(%rsp), %rax
	setb	%cl
	addq	64(%rsp), %rax
	movzbl	%cl, %edx
	adcq	40(%rsp), %rdx
	movq	72(%rsp), %r8
	setb	%r9b
	leaq	(%rdx,%r8), %rcx
	cmpq	$-1, %rcx
	setne	%r10b
	cmpq	$-2, %rax
	setb	%cl
	orb	%r10b, %cl
	movzbl	%cl, %edi
	xorl	%esi, %esi
	cmpq	$-1, %rax
	sete	%sil
	movl	%edi, %ecx
	notl	%ecx
	andl	%esi, %ecx
	movabsq	$-4994812053365940165, %r10     # imm = 0xBAAEDCE6AF48A03B
	xorl	%esi, %esi
	cmpq	%r10, %r14
	seta	%sil
	setb	%bl
	orb	%bl, %dil
	movzbl	%dil, %edi
	notl	%edi
	andl	%edi, %esi
	orl	%ecx, %esi
	movabsq	$-4624529908474429120, %rcx     # imm = 0xBFD25E8CD0364140
	xorl	%ebx, %ebx
	cmpq	%rcx, %r11
	seta	%bl
	andl	%edi, %ebx
	orl	%esi, %ebx
	movq	%rdx, %rcx
	addq	%r8, %rcx
	movq	%rax, 32(%rsp)
	movzbl	%r9b, %esi
	adcl	%ebx, %esi
	movabsq	$4624529908474429119, %rdi      # imm = 0x402DA1732FC9BEBF
	imulq	%rsi, %rdi
	movabsq	$4994812053365940164, %rcx      # imm = 0x4551231950B75FC4
	imulq	%rsi, %rcx
	addq	%r11, %rdi
	movq	%rdi, 16(%rsp)
	adcq	%r14, %rcx
	adcq	%rsi, %rax
	adcq	%r8, %rdx
	movq	%rcx, %rsi
	orq	%rdi, %rsi
	orq	%rax, %rsi
	orq	%rdx, %rsi
	setne	%bl
	cmpl	$0, 12(%rsp)
	movq	%rcx, 24(%rsp)
	sete	%sil
	andb	%bl, %sil
	cmpb	$1, %sil
	jne	.LBB17_9
# %bb.8:
	movq	%rdi, %r8
	movq	%rdx, %rdi
	shrq	$56, %rdi
	movb	%dil, (%rbp)
	movq	%rdx, %rdi
	shrq	$48, %rdi
	movb	%dil, 1(%rbp)
	movq	%rdx, %rdi
	shrq	$40, %rdi
	movb	%dil, 2(%rbp)
	movq	%rdx, %rdi
	shrq	$32, %rdi
	movb	%dil, 3(%rbp)
	movq	%rdx, %rdi
	shrq	$24, %rdi
	movb	%dil, 4(%rbp)
	movq	%rdx, %rdi
	shrq	$16, %rdi
	movb	%dil, 5(%rbp)
	movb	%dh, 6(%rbp)
	movb	%dl, 7(%rbp)
	movq	%rax, %rdx
	shrq	$56, %rdx
	movb	%dl, 8(%rbp)
	movq	%rax, %rdx
	shrq	$48, %rdx
	movb	%dl, 9(%rbp)
	movq	%rax, %rdx
	shrq	$40, %rdx
	movb	%dl, 10(%rbp)
	movq	%rax, %rdx
	shrq	$32, %rdx
	movb	%dl, 11(%rbp)
	movq	%rax, %rdx
	shrq	$24, %rdx
	movb	%dl, 12(%rbp)
	movq	%rax, %rdx
	shrq	$16, %rdx
	movb	%dl, 13(%rbp)
	movb	%ah, 14(%rbp)
	movb	%al, 15(%rbp)
	movq	%rcx, %rax
	shrq	$56, %rax
	movb	%al, 16(%rbp)
	movq	%rcx, %rax
	shrq	$48, %rax
	movb	%al, 17(%rbp)
	movq	%rcx, %rax
	shrq	$40, %rax
	movb	%al, 18(%rbp)
	movq	%rcx, %rax
	shrq	$32, %rax
	movb	%al, 19(%rbp)
	movq	%rcx, %rax
	shrq	$24, %rax
	movb	%al, 20(%rbp)
	movq	%rcx, %rax
	shrq	$16, %rax
	movb	%al, 21(%rbp)
	movb	%ch, 22(%rbp)
	movb	%cl, 23(%rbp)
	movq	%r8, %rcx
	movq	%r8, %rax
	shrq	$56, %rax
	movb	%al, 24(%rbp)
	movq	%r8, %rax
	shrq	$48, %rax
	movb	%al, 25(%rbp)
	movq	%r8, %rax
	shrq	$40, %rax
	movb	%al, 26(%rbp)
	movq	%r8, %rax
	shrq	$32, %rax
	movb	%al, 27(%rbp)
	movq	%r8, %rax
	shrq	$24, %rax
	movb	%al, 28(%rbp)
	movq	%r8, %rax
	shrq	$16, %rax
	movb	%al, 29(%rbp)
	movb	%ch, 30(%rbp)
	movb	%cl, 31(%rbp)
.LBB17_9:
	movzbl	%sil, %eax
	addq	$80, %rsp
	.cfi_def_cfa_offset 32
	popq	%rbx
	.cfi_def_cfa_offset 24
	popq	%r14
	.cfi_def_cfa_offset 16
	popq	%rbp
	.cfi_def_cfa_offset 8
	retq
.LBB17_1:
	.cfi_def_cfa_offset 112
	movq	stderr@GOTPCREL(%rip), %rax
	movq	(%rax), %rdi
	leaq	.L.str(%rip), %rsi
	leaq	.L.str.1(%rip), %rdx
	leaq	.L.str.2(%rip), %r8
	movl	$292, %ecx                      # imm = 0x124
	jmp	.LBB17_2
.LBB17_4:
	movq	stderr@GOTPCREL(%rip), %rax
	movq	(%rax), %rdi
	leaq	.L.str(%rip), %rsi
	leaq	.L.str.1(%rip), %rdx
	leaq	.L.str.10(%rip), %r8
	movl	$293, %ecx                      # imm = 0x125
	jmp	.LBB17_2
.LBB17_6:
	movq	stderr@GOTPCREL(%rip), %rax
	movq	(%rax), %rdi
	leaq	.L.str(%rip), %rsi
	leaq	.L.str.1(%rip), %rdx
	leaq	.L.str.14(%rip), %r8
	movl	$294, %ecx                      # imm = 0x126
.LBB17_2:
	xorl	%eax, %eax
	callq	fprintf@PLT
	callq	abort@PLT
.Lfunc_end17:
	.size	secp256k1_ec_privkey_tweak_add, .Lfunc_end17-secp256k1_ec_privkey_tweak_add
	.cfi_endproc
                                        # -- End function
	.globl	secp256k1_ec_pubkey_tweak_add   # -- Begin function secp256k1_ec_pubkey_tweak_add
	.p2align	4, 0x90
	.type	secp256k1_ec_pubkey_tweak_add,@function
secp256k1_ec_pubkey_tweak_add:          # @secp256k1_ec_pubkey_tweak_add
	.cfi_startproc
# %bb.0:
	pushq	%rbp
	.cfi_def_cfa_offset 16
	pushq	%r15
	.cfi_def_cfa_offset 24
	pushq	%r14
	.cfi_def_cfa_offset 32
	pushq	%r13
	.cfi_def_cfa_offset 40
	pushq	%r12
	.cfi_def_cfa_offset 48
	pushq	%rbx
	.cfi_def_cfa_offset 56
	subq	$424, %rsp                      # imm = 0x1A8
	.cfi_def_cfa_offset 480
	.cfi_offset %rbx, -56
	.cfi_offset %r12, -48
	.cfi_offset %r13, -40
	.cfi_offset %r14, -32
	.cfi_offset %r15, -24
	.cfi_offset %rbp, -16
	movl	%edx, 28(%rsp)
	movl	$0, 4(%rsp)
	testq	%rdi, %rdi
	je	.LBB18_1
# %bb.3:
	movq	%rdi, %rbx
	cmpq	$0, (%rdi)
	je	.LBB18_4
# %bb.5:
	movq	%rsi, %r14
	testq	%rsi, %rsi
	je	.LBB18_6
# %bb.7:
	testq	%rcx, %rcx
	je	.LBB18_8
# %bb.9:
	movl	%edx, %r15d
	leaq	392(%rsp), %rdi
	leaq	4(%rsp), %rdx
	movq	%rcx, %rsi
	callq	secp256k1_scalar_set_b32
	xorl	%ebp, %ebp
	cmpl	$0, 4(%rsp)
	je	.LBB18_10
.LBB18_13:                              # %.critedge
	movl	%ebp, %eax
	addq	$424, %rsp                      # imm = 0x1A8
	.cfi_def_cfa_offset 56
	popq	%rbx
	.cfi_def_cfa_offset 48
	popq	%r12
	.cfi_def_cfa_offset 40
	popq	%r13
	.cfi_def_cfa_offset 32
	popq	%r14
	.cfi_def_cfa_offset 24
	popq	%r15
	.cfi_def_cfa_offset 16
	popq	%rbp
	.cfi_def_cfa_offset 8
	retq
.LBB18_10:
	.cfi_def_cfa_offset 480
	leaq	48(%rsp), %rdi
	movq	%r14, %rsi
	movl	%r15d, %edx
	callq	secp256k1_eckey_pubkey_parse
	testl	%eax, %eax
	je	.LBB18_13
# %bb.11:
	movl	128(%rsp), %eax
	movl	%eax, 264(%rsp)
	movups	48(%rsp), %xmm0
	movups	64(%rsp), %xmm1
	movaps	%xmm0, 144(%rsp)
	movaps	%xmm1, 160(%rsp)
	movq	80(%rsp), %rax
	movq	%rax, 176(%rsp)
	movups	88(%rsp), %xmm0
	movups	%xmm0, 184(%rsp)
	movups	104(%rsp), %xmm0
	movups	%xmm0, 200(%rsp)
	movq	120(%rsp), %rax
	movq	%rax, 216(%rsp)
	movq	$1, 224(%rsp)
	xorps	%xmm0, %xmm0
	movups	%xmm0, 232(%rsp)
	movups	%xmm0, 248(%rsp)
	movq	$1, 280(%rsp)
	movups	%xmm0, 288(%rsp)
	movq	$0, 304(%rsp)
	leaq	144(%rsp), %rdx
	leaq	280(%rsp), %rcx
	leaq	392(%rsp), %r8
	movq	%rbx, %rdi
	movq	%rdx, %rsi
	callq	secp256k1_ecmult
	cmpl	$0, 264(%rsp)
	jne	.LBB18_13
# %bb.12:
	movl	$0, 128(%rsp)
	leaq	224(%rsp), %rbp
	movq	%rbp, %rdi
	movq	%rbp, %rsi
	callq	secp256k1_fe_inv_var
	leaq	352(%rsp), %rdi
	movq	%rbp, %rsi
	movq	%r14, 40(%rsp)                  # 8-byte Spill
	movl	%r15d, 24(%rsp)                 # 4-byte Spill
	#APP
	movq	(%rsi), %r10
	movq	8(%rsi), %r11
	movq	16(%rsi), %r12
	movq	24(%rsi), %r13
	movq	32(%rsi), %r14
	movabsq	$4503599627370495, %r15         # imm = 0xFFFFFFFFFFFFF
	leaq	(%r10,%r10), %rax
	mulq	%r13
	movq	%rax, %rbx
	movq	%rdx, %rcx
	leaq	(%r11,%r11), %rax
	mulq	%r12
	addq	%rax, %rbx
	adcq	%rdx, %rcx
	movq	%r14, %rax
	mulq	%r14
	movq	%rax, %r8
	movq	%rdx, %r9
	andq	%r15, %rax
	movabsq	$68719492368, %rdx              # imm = 0x1000003D10
	mulq	%rdx
	addq	%rax, %rbx
	adcq	%rdx, %rcx
	shrdq	$52, %r9, %r8
	movq	%rbx, %rsi
	andq	%r15, %rsi
	movq	%rsi, 312(%rsp)
	shrdq	$52, %rcx, %rbx
	xorq	%rcx, %rcx
	addq	%r14, %r14
	movq	%r10, %rax
	mulq	%r14
	addq	%rax, %rbx
	adcq	%rdx, %rcx
	leaq	(%r11,%r11), %rax
	mulq	%r13
	addq	%rax, %rbx
	adcq	%rdx, %rcx
	movq	%r12, %rax
	mulq	%r12
	addq	%rax, %rbx
	adcq	%rdx, %rcx
	movq	%r8, %rax
	movabsq	$68719492368, %rdx              # imm = 0x1000003D10
	mulq	%rdx
	addq	%rax, %rbx
	adcq	%rdx, %rcx
	movq	%rbx, %rsi
	andq	%r15, %rsi
	shrdq	$52, %rcx, %rbx
	xorq	%rcx, %rcx
	movq	%rsi, %rax
	shrq	$48, %rax
	movq	%rax, 8(%rsp)
	movabsq	$281474976710655, %rax          # imm = 0xFFFFFFFFFFFF
	andq	%rax, %rsi
	movq	%rsi, 16(%rsp)
	movq	%r10, %rax
	mulq	%r10
	movq	%rax, %r8
	movq	%rdx, %r9
	movq	%r11, %rax
	mulq	%r14
	addq	%rax, %rbx
	adcq	%rdx, %rcx
	leaq	(%r12,%r12), %rax
	mulq	%r13
	addq	%rax, %rbx
	adcq	%rdx, %rcx
	movq	%rbx, %rsi
	andq	%r15, %rsi
	shrdq	$52, %rcx, %rbx
	xorq	%rcx, %rcx
	shlq	$4, %rsi
	movq	8(%rsp), %rax
	orq	%rax, %rsi
	movabsq	$4294968273, %rax               # imm = 0x1000003D1
	mulq	%rsi
	addq	%rax, %r8
	adcq	%rdx, %r9
	movq	%r8, %rax
	andq	%r15, %rax
	movq	%rax, (%rdi)
	shrdq	$52, %r9, %r8
	xorq	%r9, %r9
	addq	%r10, %r10
	movq	%r10, %rax
	mulq	%r11
	addq	%rax, %r8
	adcq	%rdx, %r9
	movq	%r12, %rax
	mulq	%r14
	addq	%rax, %rbx
	adcq	%rdx, %rcx
	movq	%r13, %rax
	mulq	%r13
	addq	%rax, %rbx
	adcq	%rdx, %rcx
	movq	%rbx, %rax
	andq	%r15, %rax
	movabsq	$68719492368, %rdx              # imm = 0x1000003D10
	mulq	%rdx
	addq	%rax, %r8
	adcq	%rdx, %r9
	shrdq	$52, %rcx, %rbx
	xorq	%rcx, %rcx
	movq	%r8, %rax
	andq	%r15, %rax
	movq	%rax, 8(%rdi)
	shrdq	$52, %r9, %r8
	xorq	%r9, %r9
	movq	%r10, %rax
	mulq	%r12
	addq	%rax, %r8
	adcq	%rdx, %r9
	movq	16(%rsp), %rsi
	movq	312(%rsp), %r10
	movq	%r11, %rax
	mulq	%r11
	addq	%rax, %r8
	adcq	%rdx, %r9
	movq	%r13, %rax
	mulq	%r14
	addq	%rax, %rbx
	adcq	%rdx, %rcx
	movq	%rbx, %rax
	andq	%r15, %rax
	movabsq	$68719492368, %rdx              # imm = 0x1000003D10
	mulq	%rdx
	addq	%rax, %r8
	adcq	%rdx, %r9
	shrdq	$52, %rcx, %rbx
	movq	%r8, %rax
	andq	%r15, %rax
	movq	%rax, 16(%rdi)
	shrdq	$52, %r9, %r8
	xorq	%r9, %r9
	addq	%r10, %r8
	movq	%rbx, %rax
	movabsq	$68719492368, %rdx              # imm = 0x1000003D10
	mulq	%rdx
	addq	%rax, %r8
	adcq	%rdx, %r9
	movq	%r8, %rax
	andq	%r15, %rax
	movq	%rax, 24(%rdi)
	shrdq	$52, %r9, %r8
	addq	%rsi, %r8
	movq	%r8, 32(%rdi)

	#NO_APP
	leaq	312(%rsp), %rdi
	leaq	352(%rsp), %rbx
	movq	%rbp, %rsi
	#APP
	movq	(%rsi), %r10
	movq	8(%rsi), %r11
	movq	16(%rsi), %r12
	movq	24(%rsi), %r13
	movq	32(%rsi), %r14
	movq	(%rbx), %rax
	mulq	%r13
	movq	%rax, %rcx
	movq	%rdx, %r15
	movq	8(%rbx), %rax
	mulq	%r12
	addq	%rax, %rcx
	adcq	%rdx, %r15
	movq	16(%rbx), %rax
	mulq	%r11
	addq	%rax, %rcx
	adcq	%rdx, %r15
	movq	24(%rbx), %rax
	mulq	%r10
	addq	%rax, %rcx
	adcq	%rdx, %r15
	movq	32(%rbx), %rax
	mulq	%r14
	movq	%rax, %r8
	movq	%rdx, %r9
	movabsq	$4503599627370495, %rdx         # imm = 0xFFFFFFFFFFFFF
	andq	%rdx, %rax
	movabsq	$68719492368, %rdx              # imm = 0x1000003D10
	mulq	%rdx
	addq	%rax, %rcx
	adcq	%rdx, %r15
	shrdq	$52, %r9, %r8
	movq	%rcx, %rsi
	movabsq	$4503599627370495, %rdx         # imm = 0xFFFFFFFFFFFFF
	andq	%rdx, %rsi
	movq	%rsi, 16(%rsp)
	shrdq	$52, %r15, %rcx
	xorq	%r15, %r15
	movq	(%rbx), %rax
	mulq	%r14
	addq	%rax, %rcx
	adcq	%rdx, %r15
	movq	8(%rbx), %rax
	mulq	%r13
	addq	%rax, %rcx
	adcq	%rdx, %r15
	movq	16(%rbx), %rax
	mulq	%r12
	addq	%rax, %rcx
	adcq	%rdx, %r15
	movq	24(%rbx), %rax
	mulq	%r11
	addq	%rax, %rcx
	adcq	%rdx, %r15
	movq	32(%rbx), %rax
	mulq	%r10
	addq	%rax, %rcx
	adcq	%rdx, %r15
	movq	%r8, %rax
	movabsq	$68719492368, %rdx              # imm = 0x1000003D10
	mulq	%rdx
	addq	%rax, %rcx
	adcq	%rdx, %r15
	movq	%rcx, %rsi
	movabsq	$4503599627370495, %rdx         # imm = 0xFFFFFFFFFFFFF
	andq	%rdx, %rsi
	shrdq	$52, %r15, %rcx
	xorq	%r15, %r15
	movq	%rsi, %rax
	shrq	$48, %rax
	movq	%rax, 32(%rsp)
	movabsq	$281474976710655, %rax          # imm = 0xFFFFFFFFFFFF
	andq	%rax, %rsi
	movq	%rsi, 8(%rsp)
	movq	(%rbx), %rax
	mulq	%r10
	movq	%rax, %r8
	movq	%rdx, %r9
	movq	8(%rbx), %rax
	mulq	%r14
	addq	%rax, %rcx
	adcq	%rdx, %r15
	movq	16(%rbx), %rax
	mulq	%r13
	addq	%rax, %rcx
	adcq	%rdx, %r15
	movq	24(%rbx), %rax
	mulq	%r12
	addq	%rax, %rcx
	adcq	%rdx, %r15
	movq	32(%rbx), %rax
	mulq	%r11
	addq	%rax, %rcx
	adcq	%rdx, %r15
	movq	%rcx, %rsi
	movabsq	$4503599627370495, %rdx         # imm = 0xFFFFFFFFFFFFF
	andq	%rdx, %rsi
	shrdq	$52, %r15, %rcx
	xorq	%r15, %r15
	shlq	$4, %rsi
	movq	32(%rsp), %rax
	orq	%rax, %rsi
	movabsq	$4294968273, %rax               # imm = 0x1000003D1
	mulq	%rsi
	addq	%rax, %r8
	adcq	%rdx, %r9
	movq	%r8, %rax
	movabsq	$4503599627370495, %rdx         # imm = 0xFFFFFFFFFFFFF
	andq	%rdx, %rax
	movq	%rax, (%rdi)
	shrdq	$52, %r9, %r8
	xorq	%r9, %r9
	movq	(%rbx), %rax
	mulq	%r11
	addq	%rax, %r8
	adcq	%rdx, %r9
	movq	8(%rbx), %rax
	mulq	%r10
	addq	%rax, %r8
	adcq	%rdx, %r9
	movq	16(%rbx), %rax
	mulq	%r14
	addq	%rax, %rcx
	adcq	%rdx, %r15
	movq	24(%rbx), %rax
	mulq	%r13
	addq	%rax, %rcx
	adcq	%rdx, %r15
	movq	32(%rbx), %rax
	mulq	%r12
	addq	%rax, %rcx
	adcq	%rdx, %r15
	movq	%rcx, %rax
	movabsq	$4503599627370495, %rdx         # imm = 0xFFFFFFFFFFFFF
	andq	%rdx, %rax
	movabsq	$68719492368, %rdx              # imm = 0x1000003D10
	mulq	%rdx
	addq	%rax, %r8
	adcq	%rdx, %r9
	shrdq	$52, %r15, %rcx
	xorq	%r15, %r15
	movq	%r8, %rax
	movabsq	$4503599627370495, %rdx         # imm = 0xFFFFFFFFFFFFF
	andq	%rdx, %rax
	movq	%rax, 8(%rdi)
	shrdq	$52, %r9, %r8
	xorq	%r9, %r9
	movq	(%rbx), %rax
	mulq	%r12
	addq	%rax, %r8
	adcq	%rdx, %r9
	movq	8(%rbx), %rax
	mulq	%r11
	addq	%rax, %r8
	adcq	%rdx, %r9
	movq	16(%rbx), %rax
	mulq	%r10
	addq	%rax, %r8
	adcq	%rdx, %r9
	movq	8(%rsp), %rsi
	movq	16(%rsp), %r10
	movq	24(%rbx), %rax
	mulq	%r14
	addq	%rax, %rcx
	adcq	%rdx, %r15
	movq	32(%rbx), %rax
	mulq	%r13
	addq	%rax, %rcx
	adcq	%rdx, %r15
	movq	%rcx, %rax
	movabsq	$4503599627370495, %rdx         # imm = 0xFFFFFFFFFFFFF
	andq	%rdx, %rax
	movabsq	$68719492368, %rdx              # imm = 0x1000003D10
	mulq	%rdx
	addq	%rax, %r8
	adcq	%rdx, %r9
	shrdq	$52, %r15, %rcx
	movq	%r8, %rax
	movabsq	$4503599627370495, %rdx         # imm = 0xFFFFFFFFFFFFF
	andq	%rdx, %rax
	movq	%rax, 16(%rdi)
	shrdq	$52, %r9, %r8
	xorq	%r9, %r9
	addq	%r10, %r8
	movq	%rcx, %rax
	movabsq	$68719492368, %rdx              # imm = 0x1000003D10
	mulq	%rdx
	addq	%rax, %r8
	adcq	%rdx, %r9
	movq	%r8, %rax
	movabsq	$4503599627370495, %rdx         # imm = 0xFFFFFFFFFFFFF
	andq	%rdx, %rax
	movq	%rax, 24(%rdi)
	shrdq	$52, %r9, %r8
	addq	%rsi, %r8
	movq	%r8, 32(%rdi)

	#NO_APP
	leaq	352(%rsp), %rbx
	leaq	144(%rsp), %rdi
	movq	%rdi, %rsi
	#APP
	movq	(%rsi), %r10
	movq	8(%rsi), %r11
	movq	16(%rsi), %r12
	movq	24(%rsi), %r13
	movq	32(%rsi), %r14
	movq	(%rbx), %rax
	mulq	%r13
	movq	%rax, %rcx
	movq	%rdx, %r15
	movq	8(%rbx), %rax
	mulq	%r12
	addq	%rax, %rcx
	adcq	%rdx, %r15
	movq	16(%rbx), %rax
	mulq	%r11
	addq	%rax, %rcx
	adcq	%rdx, %r15
	movq	24(%rbx), %rax
	mulq	%r10
	addq	%rax, %rcx
	adcq	%rdx, %r15
	movq	32(%rbx), %rax
	mulq	%r14
	movq	%rax, %r8
	movq	%rdx, %r9
	movabsq	$4503599627370495, %rdx         # imm = 0xFFFFFFFFFFFFF
	andq	%rdx, %rax
	movabsq	$68719492368, %rdx              # imm = 0x1000003D10
	mulq	%rdx
	addq	%rax, %rcx
	adcq	%rdx, %r15
	shrdq	$52, %r9, %r8
	movq	%rcx, %rsi
	movabsq	$4503599627370495, %rdx         # imm = 0xFFFFFFFFFFFFF
	andq	%rdx, %rsi
	movq	%rsi, 16(%rsp)
	shrdq	$52, %r15, %rcx
	xorq	%r15, %r15
	movq	(%rbx), %rax
	mulq	%r14
	addq	%rax, %rcx
	adcq	%rdx, %r15
	movq	8(%rbx), %rax
	mulq	%r13
	addq	%rax, %rcx
	adcq	%rdx, %r15
	movq	16(%rbx), %rax
	mulq	%r12
	addq	%rax, %rcx
	adcq	%rdx, %r15
	movq	24(%rbx), %rax
	mulq	%r11
	addq	%rax, %rcx
	adcq	%rdx, %r15
	movq	32(%rbx), %rax
	mulq	%r10
	addq	%rax, %rcx
	adcq	%rdx, %r15
	movq	%r8, %rax
	movabsq	$68719492368, %rdx              # imm = 0x1000003D10
	mulq	%rdx
	addq	%rax, %rcx
	adcq	%rdx, %r15
	movq	%rcx, %rsi
	movabsq	$4503599627370495, %rdx         # imm = 0xFFFFFFFFFFFFF
	andq	%rdx, %rsi
	shrdq	$52, %r15, %rcx
	xorq	%r15, %r15
	movq	%rsi, %rax
	shrq	$48, %rax
	movq	%rax, 32(%rsp)
	movabsq	$281474976710655, %rax          # imm = 0xFFFFFFFFFFFF
	andq	%rax, %rsi
	movq	%rsi, 8(%rsp)
	movq	(%rbx), %rax
	mulq	%r10
	movq	%rax, %r8
	movq	%rdx, %r9
	movq	8(%rbx), %rax
	mulq	%r14
	addq	%rax, %rcx
	adcq	%rdx, %r15
	movq	16(%rbx), %rax
	mulq	%r13
	addq	%rax, %rcx
	adcq	%rdx, %r15
	movq	24(%rbx), %rax
	mulq	%r12
	addq	%rax, %rcx
	adcq	%rdx, %r15
	movq	32(%rbx), %rax
	mulq	%r11
	addq	%rax, %rcx
	adcq	%rdx, %r15
	movq	%rcx, %rsi
	movabsq	$4503599627370495, %rdx         # imm = 0xFFFFFFFFFFFFF
	andq	%rdx, %rsi
	shrdq	$52, %r15, %rcx
	xorq	%r15, %r15
	shlq	$4, %rsi
	movq	32(%rsp), %rax
	orq	%rax, %rsi
	movabsq	$4294968273, %rax               # imm = 0x1000003D1
	mulq	%rsi
	addq	%rax, %r8
	adcq	%rdx, %r9
	movq	%r8, %rax
	movabsq	$4503599627370495, %rdx         # imm = 0xFFFFFFFFFFFFF
	andq	%rdx, %rax
	movq	%rax, (%rdi)
	shrdq	$52, %r9, %r8
	xorq	%r9, %r9
	movq	(%rbx), %rax
	mulq	%r11
	addq	%rax, %r8
	adcq	%rdx, %r9
	movq	8(%rbx), %rax
	mulq	%r10
	addq	%rax, %r8
	adcq	%rdx, %r9
	movq	16(%rbx), %rax
	mulq	%r14
	addq	%rax, %rcx
	adcq	%rdx, %r15
	movq	24(%rbx), %rax
	mulq	%r13
	addq	%rax, %rcx
	adcq	%rdx, %r15
	movq	32(%rbx), %rax
	mulq	%r12
	addq	%rax, %rcx
	adcq	%rdx, %r15
	movq	%rcx, %rax
	movabsq	$4503599627370495, %rdx         # imm = 0xFFFFFFFFFFFFF
	andq	%rdx, %rax
	movabsq	$68719492368, %rdx              # imm = 0x1000003D10
	mulq	%rdx
	addq	%rax, %r8
	adcq	%rdx, %r9
	shrdq	$52, %r15, %rcx
	xorq	%r15, %r15
	movq	%r8, %rax
	movabsq	$4503599627370495, %rdx         # imm = 0xFFFFFFFFFFFFF
	andq	%rdx, %rax
	movq	%rax, 8(%rdi)
	shrdq	$52, %r9, %r8
	xorq	%r9, %r9
	movq	(%rbx), %rax
	mulq	%r12
	addq	%rax, %r8
	adcq	%rdx, %r9
	movq	8(%rbx), %rax
	mulq	%r11
	addq	%rax, %r8
	adcq	%rdx, %r9
	movq	16(%rbx), %rax
	mulq	%r10
	addq	%rax, %r8
	adcq	%rdx, %r9
	movq	8(%rsp), %rsi
	movq	16(%rsp), %r10
	movq	24(%rbx), %rax
	mulq	%r14
	addq	%rax, %rcx
	adcq	%rdx, %r15
	movq	32(%rbx), %rax
	mulq	%r13
	addq	%rax, %rcx
	adcq	%rdx, %r15
	movq	%rcx, %rax
	movabsq	$4503599627370495, %rdx         # imm = 0xFFFFFFFFFFFFF
	andq	%rdx, %rax
	movabsq	$68719492368, %rdx              # imm = 0x1000003D10
	mulq	%rdx
	addq	%rax, %r8
	adcq	%rdx, %r9
	shrdq	$52, %r15, %rcx
	movq	%r8, %rax
	movabsq	$4503599627370495, %rdx         # imm = 0xFFFFFFFFFFFFF
	andq	%rdx, %rax
	movq	%rax, 16(%rdi)
	shrdq	$52, %r9, %r8
	xorq	%r9, %r9
	addq	%r10, %r8
	movq	%rcx, %rax
	movabsq	$68719492368, %rdx              # imm = 0x1000003D10
	mulq	%rdx
	addq	%rax, %r8
	adcq	%rdx, %r9
	movq	%r8, %rax
	movabsq	$4503599627370495, %rdx         # imm = 0xFFFFFFFFFFFFF
	andq	%rdx, %rax
	movq	%rax, 24(%rdi)
	shrdq	$52, %r9, %r8
	addq	%rsi, %r8
	movq	%r8, 32(%rdi)

	#NO_APP
	leaq	312(%rsp), %rbx
	leaq	184(%rsp), %rdi
	movq	%rdi, %rsi
	#APP
	movq	(%rsi), %r10
	movq	8(%rsi), %r11
	movq	16(%rsi), %r12
	movq	24(%rsi), %r13
	movq	32(%rsi), %r14
	movq	(%rbx), %rax
	mulq	%r13
	movq	%rax, %rcx
	movq	%rdx, %r15
	movq	8(%rbx), %rax
	mulq	%r12
	addq	%rax, %rcx
	adcq	%rdx, %r15
	movq	16(%rbx), %rax
	mulq	%r11
	addq	%rax, %rcx
	adcq	%rdx, %r15
	movq	24(%rbx), %rax
	mulq	%r10
	addq	%rax, %rcx
	adcq	%rdx, %r15
	movq	32(%rbx), %rax
	mulq	%r14
	movq	%rax, %r8
	movq	%rdx, %r9
	movabsq	$4503599627370495, %rdx         # imm = 0xFFFFFFFFFFFFF
	andq	%rdx, %rax
	movabsq	$68719492368, %rdx              # imm = 0x1000003D10
	mulq	%rdx
	addq	%rax, %rcx
	adcq	%rdx, %r15
	shrdq	$52, %r9, %r8
	movq	%rcx, %rsi
	movabsq	$4503599627370495, %rdx         # imm = 0xFFFFFFFFFFFFF
	andq	%rdx, %rsi
	movq	%rsi, 16(%rsp)
	shrdq	$52, %r15, %rcx
	xorq	%r15, %r15
	movq	(%rbx), %rax
	mulq	%r14
	addq	%rax, %rcx
	adcq	%rdx, %r15
	movq	8(%rbx), %rax
	mulq	%r13
	addq	%rax, %rcx
	adcq	%rdx, %r15
	movq	16(%rbx), %rax
	mulq	%r12
	addq	%rax, %rcx
	adcq	%rdx, %r15
	movq	24(%rbx), %rax
	mulq	%r11
	addq	%rax, %rcx
	adcq	%rdx, %r15
	movq	32(%rbx), %rax
	mulq	%r10
	addq	%rax, %rcx
	adcq	%rdx, %r15
	movq	%r8, %rax
	movabsq	$68719492368, %rdx              # imm = 0x1000003D10
	mulq	%rdx
	addq	%rax, %rcx
	adcq	%rdx, %r15
	movq	%rcx, %rsi
	movabsq	$4503599627370495, %rdx         # imm = 0xFFFFFFFFFFFFF
	andq	%rdx, %rsi
	shrdq	$52, %r15, %rcx
	xorq	%r15, %r15
	movq	%rsi, %rax
	shrq	$48, %rax
	movq	%rax, 32(%rsp)
	movabsq	$281474976710655, %rax          # imm = 0xFFFFFFFFFFFF
	andq	%rax, %rsi
	movq	%rsi, 8(%rsp)
	movq	(%rbx), %rax
	mulq	%r10
	movq	%rax, %r8
	movq	%rdx, %r9
	movq	8(%rbx), %rax
	mulq	%r14
	addq	%rax, %rcx
	adcq	%rdx, %r15
	movq	16(%rbx), %rax
	mulq	%r13
	addq	%rax, %rcx
	adcq	%rdx, %r15
	movq	24(%rbx), %rax
	mulq	%r12
	addq	%rax, %rcx
	adcq	%rdx, %r15
	movq	32(%rbx), %rax
	mulq	%r11
	addq	%rax, %rcx
	adcq	%rdx, %r15
	movq	%rcx, %rsi
	movabsq	$4503599627370495, %rdx         # imm = 0xFFFFFFFFFFFFF
	andq	%rdx, %rsi
	shrdq	$52, %r15, %rcx
	xorq	%r15, %r15
	shlq	$4, %rsi
	movq	32(%rsp), %rax
	orq	%rax, %rsi
	movabsq	$4294968273, %rax               # imm = 0x1000003D1
	mulq	%rsi
	addq	%rax, %r8
	adcq	%rdx, %r9
	movq	%r8, %rax
	movabsq	$4503599627370495, %rdx         # imm = 0xFFFFFFFFFFFFF
	andq	%rdx, %rax
	movq	%rax, (%rdi)
	shrdq	$52, %r9, %r8
	xorq	%r9, %r9
	movq	(%rbx), %rax
	mulq	%r11
	addq	%rax, %r8
	adcq	%rdx, %r9
	movq	8(%rbx), %rax
	mulq	%r10
	addq	%rax, %r8
	adcq	%rdx, %r9
	movq	16(%rbx), %rax
	mulq	%r14
	addq	%rax, %rcx
	adcq	%rdx, %r15
	movq	24(%rbx), %rax
	mulq	%r13
	addq	%rax, %rcx
	adcq	%rdx, %r15
	movq	32(%rbx), %rax
	mulq	%r12
	addq	%rax, %rcx
	adcq	%rdx, %r15
	movq	%rcx, %rax
	movabsq	$4503599627370495, %rdx         # imm = 0xFFFFFFFFFFFFF
	andq	%rdx, %rax
	movabsq	$68719492368, %rdx              # imm = 0x1000003D10
	mulq	%rdx
	addq	%rax, %r8
	adcq	%rdx, %r9
	shrdq	$52, %r15, %rcx
	xorq	%r15, %r15
	movq	%r8, %rax
	movabsq	$4503599627370495, %rdx         # imm = 0xFFFFFFFFFFFFF
	andq	%rdx, %rax
	movq	%rax, 8(%rdi)
	shrdq	$52, %r9, %r8
	xorq	%r9, %r9
	movq	(%rbx), %rax
	mulq	%r12
	addq	%rax, %r8
	adcq	%rdx, %r9
	movq	8(%rbx), %rax
	mulq	%r11
	addq	%rax, %r8
	adcq	%rdx, %r9
	movq	16(%rbx), %rax
	mulq	%r10
	addq	%rax, %r8
	adcq	%rdx, %r9
	movq	8(%rsp), %rsi
	movq	16(%rsp), %r10
	movq	24(%rbx), %rax
	mulq	%r14
	addq	%rax, %rcx
	adcq	%rdx, %r15
	movq	32(%rbx), %rax
	mulq	%r13
	addq	%rax, %rcx
	adcq	%rdx, %r15
	movq	%rcx, %rax
	movabsq	$4503599627370495, %rdx         # imm = 0xFFFFFFFFFFFFF
	andq	%rdx, %rax
	movabsq	$68719492368, %rdx              # imm = 0x1000003D10
	mulq	%rdx
	addq	%rax, %r8
	adcq	%rdx, %r9
	shrdq	$52, %r15, %rcx
	movq	%r8, %rax
	movabsq	$4503599627370495, %rdx         # imm = 0xFFFFFFFFFFFFF
	andq	%rdx, %rax
	movq	%rax, 16(%rdi)
	shrdq	$52, %r9, %r8
	xorq	%r9, %r9
	addq	%r10, %r8
	movq	%rcx, %rax
	movabsq	$68719492368, %rdx              # imm = 0x1000003D10
	mulq	%rdx
	addq	%rax, %r8
	adcq	%rdx, %r9
	movq	%r8, %rax
	movabsq	$4503599627370495, %rdx         # imm = 0xFFFFFFFFFFFFF
	andq	%rdx, %rax
	movq	%rax, 24(%rdi)
	shrdq	$52, %r9, %r8
	addq	%rsi, %r8
	movq	%r8, 32(%rdi)

	#NO_APP
	movq	$1, 224(%rsp)
	xorps	%xmm0, %xmm0
	movups	%xmm0, 64(%rdi)
	movups	%xmm0, 48(%rdi)
	movq	176(%rsp), %rax
	movq	%rax, 80(%rsp)
	movaps	144(%rsp), %xmm0
	movaps	160(%rsp), %xmm1
	movaps	%xmm1, 64(%rsp)
	movaps	%xmm0, 48(%rsp)
	movq	32(%rdi), %rax
	leaq	88(%rsp), %rcx
	movq	%rax, 32(%rcx)
	movups	(%rdi), %xmm0
	movups	16(%rdi), %xmm1
	movups	%xmm1, 16(%rcx)
	movups	%xmm0, (%rcx)
	xorl	%ecx, %ecx
	cmpl	$34, 24(%rsp)                   # 4-byte Folded Reload
	setl	%cl
	leaq	48(%rsp), %rdi
	leaq	28(%rsp), %rdx
	movq	40(%rsp), %rsi                  # 8-byte Reload
	callq	secp256k1_eckey_pubkey_serialize
	movl	%eax, %ebp
	jmp	.LBB18_13
.LBB18_1:
	movq	stderr@GOTPCREL(%rip), %rax
	movq	(%rax), %rdi
	leaq	.L.str(%rip), %rsi
	leaq	.L.str.1(%rip), %rdx
	leaq	.L.str.2(%rip), %r8
	movl	$315, %ecx                      # imm = 0x13B
	jmp	.LBB18_2
.LBB18_4:
	movq	stderr@GOTPCREL(%rip), %rax
	movq	(%rax), %rdi
	leaq	.L.str(%rip), %rsi
	leaq	.L.str.1(%rip), %rdx
	leaq	.L.str.3(%rip), %r8
	movl	$316, %ecx                      # imm = 0x13C
	jmp	.LBB18_2
.LBB18_6:
	movq	stderr@GOTPCREL(%rip), %rax
	movq	(%rax), %rdi
	leaq	.L.str(%rip), %rsi
	leaq	.L.str.1(%rip), %rdx
	leaq	.L.str.6(%rip), %r8
	movl	$317, %ecx                      # imm = 0x13D
	jmp	.LBB18_2
.LBB18_8:
	movq	stderr@GOTPCREL(%rip), %rax
	movq	(%rax), %rdi
	leaq	.L.str(%rip), %rsi
	leaq	.L.str.1(%rip), %rdx
	leaq	.L.str.14(%rip), %r8
	movl	$318, %ecx                      # imm = 0x13E
.LBB18_2:
	xorl	%eax, %eax
	callq	fprintf@PLT
	callq	abort@PLT
.Lfunc_end18:
	.size	secp256k1_ec_pubkey_tweak_add, .Lfunc_end18-secp256k1_ec_pubkey_tweak_add
	.cfi_endproc
                                        # -- End function
	.globl	secp256k1_ec_privkey_tweak_mul  # -- Begin function secp256k1_ec_privkey_tweak_mul
	.p2align	4, 0x90
	.type	secp256k1_ec_privkey_tweak_mul,@function
secp256k1_ec_privkey_tweak_mul:         # @secp256k1_ec_privkey_tweak_mul
	.cfi_startproc
# %bb.0:
	pushq	%rbp
	.cfi_def_cfa_offset 16
	pushq	%r15
	.cfi_def_cfa_offset 24
	pushq	%r14
	.cfi_def_cfa_offset 32
	pushq	%r13
	.cfi_def_cfa_offset 40
	pushq	%r12
	.cfi_def_cfa_offset 48
	pushq	%rbx
	.cfi_def_cfa_offset 56
	subq	$152, %rsp
	.cfi_def_cfa_offset 208
	.cfi_offset %rbx, -56
	.cfi_offset %r12, -48
	.cfi_offset %r13, -40
	.cfi_offset %r14, -32
	.cfi_offset %r15, -24
	.cfi_offset %rbp, -16
	movl	$0, 12(%rsp)
	testq	%rdi, %rdi
	je	.LBB19_1
# %bb.3:
	movq	%rsi, %rbp
	testq	%rsi, %rsi
	je	.LBB19_4
# %bb.5:
	testq	%rdx, %rdx
	je	.LBB19_6
# %bb.7:
	leaq	48(%rsp), %r14
	leaq	12(%rsp), %rax
	movq	%r14, %rdi
	movq	%rdx, %rsi
	movq	%rax, %rdx
	callq	secp256k1_scalar_set_b32
	xorl	%ebx, %ebx
	leaq	16(%rsp), %rdi
	movq	%rbp, %rsi
	xorl	%edx, %edx
	callq	secp256k1_scalar_set_b32
	movdqa	48(%rsp), %xmm0
	por	64(%rsp), %xmm0
	pxor	%xmm1, %xmm1
	pcmpeqb	%xmm0, %xmm1
	pmovmskb	%xmm1, %eax
	cmpl	$65535, %eax                    # imm = 0xFFFF
	je	.LBB19_10
# %bb.8:                                # %secp256k1_eckey_privkey_tweak_mul.exit
	leaq	80(%rsp), %rsi
	leaq	16(%rsp), %rdi
	movq	%r14, %rdx
	#APP
	movq	(%rdi), %r15
	movq	8(%rdi), %rbx
	movq	16(%rdi), %rcx
	movq	(%rdx), %r11
	movq	8(%rdx), %r12
	movq	16(%rdx), %r13
	movq	24(%rdx), %r14
	movq	%r15, %rax
	mulq	%r11
	movq	%rax, (%rsi)
	movq	%rdx, %r8
	xorq	%r9, %r9
	xorq	%r10, %r10
	movq	%r15, %rax
	mulq	%r12
	addq	%rax, %r8
	adcq	%rdx, %r9
	adcq	$0, %r10
	movq	%rbx, %rax
	mulq	%r11
	addq	%rax, %r8
	adcq	%rdx, %r9
	adcq	$0, %r10
	movq	%r8, 8(%rsi)
	xorq	%r8, %r8
	movq	%r15, %rax
	mulq	%r13
	addq	%rax, %r9
	adcq	%rdx, %r10
	adcq	$0, %r8
	movq	%rbx, %rax
	mulq	%r12
	addq	%rax, %r9
	adcq	%rdx, %r10
	adcq	$0, %r8
	movq	%rcx, %rax
	mulq	%r11
	addq	%rax, %r9
	adcq	%rdx, %r10
	adcq	$0, %r8
	movq	%r9, 16(%rsi)
	xorq	%r9, %r9
	movq	%r15, %rax
	mulq	%r14
	addq	%rax, %r10
	adcq	%rdx, %r8
	adcq	$0, %r9
	movq	24(%rdi), %r15
	movq	%rbx, %rax
	mulq	%r13
	addq	%rax, %r10
	adcq	%rdx, %r8
	adcq	$0, %r9
	movq	%rcx, %rax
	mulq	%r12
	addq	%rax, %r10
	adcq	%rdx, %r8
	adcq	$0, %r9
	movq	%r15, %rax
	mulq	%r11
	addq	%rax, %r10
	adcq	%rdx, %r8
	adcq	$0, %r9
	movq	%r10, 24(%rsi)
	xorq	%r10, %r10
	movq	%rbx, %rax
	mulq	%r14
	addq	%rax, %r8
	adcq	%rdx, %r9
	adcq	$0, %r10
	movq	%rcx, %rax
	mulq	%r13
	addq	%rax, %r8
	adcq	%rdx, %r9
	adcq	$0, %r10
	movq	%r15, %rax
	mulq	%r12
	addq	%rax, %r8
	adcq	%rdx, %r9
	adcq	$0, %r10
	movq	%r8, 32(%rsi)
	xorq	%r8, %r8
	movq	%rcx, %rax
	mulq	%r14
	addq	%rax, %r9
	adcq	%rdx, %r10
	adcq	$0, %r8
	movq	%r15, %rax
	mulq	%r13
	addq	%rax, %r9
	adcq	%rdx, %r10
	adcq	$0, %r8
	movq	%r9, 40(%rsi)
	movq	%r15, %rax
	mulq	%r14
	addq	%rax, %r10
	adcq	%rdx, %r8
	movq	%r10, 48(%rsi)
	movq	%r8, 56(%rsi)

	#NO_APP
	xorl	%ebx, %ebx
	callq	secp256k1_scalar_reduce_512
	cmpl	$0, 12(%rsp)
	jne	.LBB19_10
# %bb.9:
	movq	40(%rsp), %rax
	bswapq	%rax
	movq	%rax, (%rbp)
	movq	32(%rsp), %rax
	bswapq	%rax
	movq	%rax, 8(%rbp)
	movq	24(%rsp), %rax
	bswapq	%rax
	movq	%rax, 16(%rbp)
	movq	16(%rsp), %rax
	bswapq	%rax
	movq	%rax, 24(%rbp)
	movl	$1, %ebx
.LBB19_10:                              # %secp256k1_eckey_privkey_tweak_mul.exit.thread
	movl	%ebx, %eax
	addq	$152, %rsp
	.cfi_def_cfa_offset 56
	popq	%rbx
	.cfi_def_cfa_offset 48
	popq	%r12
	.cfi_def_cfa_offset 40
	popq	%r13
	.cfi_def_cfa_offset 32
	popq	%r14
	.cfi_def_cfa_offset 24
	popq	%r15
	.cfi_def_cfa_offset 16
	popq	%rbp
	.cfi_def_cfa_offset 8
	retq
.LBB19_1:
	.cfi_def_cfa_offset 208
	movq	stderr@GOTPCREL(%rip), %rax
	movq	(%rax), %rdi
	leaq	.L.str(%rip), %rsi
	leaq	.L.str.1(%rip), %rdx
	leaq	.L.str.2(%rip), %r8
	movl	$341, %ecx                      # imm = 0x155
	jmp	.LBB19_2
.LBB19_4:
	movq	stderr@GOTPCREL(%rip), %rax
	movq	(%rax), %rdi
	leaq	.L.str(%rip), %rsi
	leaq	.L.str.1(%rip), %rdx
	leaq	.L.str.10(%rip), %r8
	movl	$342, %ecx                      # imm = 0x156
	jmp	.LBB19_2
.LBB19_6:
	movq	stderr@GOTPCREL(%rip), %rax
	movq	(%rax), %rdi
	leaq	.L.str(%rip), %rsi
	leaq	.L.str.1(%rip), %rdx
	leaq	.L.str.14(%rip), %r8
	movl	$343, %ecx                      # imm = 0x157
.LBB19_2:
	xorl	%eax, %eax
	callq	fprintf@PLT
	callq	abort@PLT
.Lfunc_end19:
	.size	secp256k1_ec_privkey_tweak_mul, .Lfunc_end19-secp256k1_ec_privkey_tweak_mul
	.cfi_endproc
                                        # -- End function
	.section	.rodata.cst16,"aM",@progbits,16
	.p2align	4                               # -- Begin function secp256k1_ec_pubkey_tweak_mul
.LCPI20_0:
	.zero	16
	.text
	.globl	secp256k1_ec_pubkey_tweak_mul
	.p2align	4, 0x90
	.type	secp256k1_ec_pubkey_tweak_mul,@function
secp256k1_ec_pubkey_tweak_mul:          # @secp256k1_ec_pubkey_tweak_mul
	.cfi_startproc
# %bb.0:
	pushq	%rbp
	.cfi_def_cfa_offset 16
	pushq	%r15
	.cfi_def_cfa_offset 24
	pushq	%r14
	.cfi_def_cfa_offset 32
	pushq	%r13
	.cfi_def_cfa_offset 40
	pushq	%r12
	.cfi_def_cfa_offset 48
	pushq	%rbx
	.cfi_def_cfa_offset 56
	subq	$424, %rsp                      # imm = 0x1A8
	.cfi_def_cfa_offset 480
	.cfi_offset %rbx, -56
	.cfi_offset %r12, -48
	.cfi_offset %r13, -40
	.cfi_offset %r14, -32
	.cfi_offset %r15, -24
	.cfi_offset %rbp, -16
	movl	%edx, 28(%rsp)
	movl	$0, 4(%rsp)
	testq	%rdi, %rdi
	je	.LBB20_1
# %bb.3:
	movq	%rdi, %rbx
	cmpq	$0, (%rdi)
	je	.LBB20_4
# %bb.5:
	movq	%rsi, %r14
	testq	%rsi, %rsi
	je	.LBB20_6
# %bb.7:
	testq	%rcx, %rcx
	je	.LBB20_8
# %bb.9:
	movl	%edx, %r15d
	leaq	272(%rsp), %rdi
	leaq	4(%rsp), %rdx
	movq	%rcx, %rsi
	callq	secp256k1_scalar_set_b32
	xorl	%ebp, %ebp
	cmpl	$0, 4(%rsp)
	je	.LBB20_10
.LBB20_13:                              # %.critedge
	movl	%ebp, %eax
	addq	$424, %rsp                      # imm = 0x1A8
	.cfi_def_cfa_offset 56
	popq	%rbx
	.cfi_def_cfa_offset 48
	popq	%r12
	.cfi_def_cfa_offset 40
	popq	%r13
	.cfi_def_cfa_offset 32
	popq	%r14
	.cfi_def_cfa_offset 24
	popq	%r15
	.cfi_def_cfa_offset 16
	popq	%rbp
	.cfi_def_cfa_offset 8
	retq
.LBB20_10:
	.cfi_def_cfa_offset 480
	leaq	48(%rsp), %rdi
	movq	%r14, %rsi
	movl	%r15d, %edx
	callq	secp256k1_eckey_pubkey_parse
	testl	%eax, %eax
	je	.LBB20_13
# %bb.11:
	movdqa	272(%rsp), %xmm0
	por	288(%rsp), %xmm0
	pxor	%xmm1, %xmm1
	pcmpeqb	%xmm1, %xmm0
	pmovmskb	%xmm0, %eax
	cmpl	$65535, %eax                    # imm = 0xFFFF
	je	.LBB20_13
# %bb.12:
	movdqa	%xmm1, 320(%rsp)
	movdqa	%xmm1, 304(%rsp)
	movl	128(%rsp), %eax
	movl	%eax, 264(%rsp)
	movaps	48(%rsp), %xmm0
	movaps	64(%rsp), %xmm1
	movaps	%xmm0, 144(%rsp)
	movaps	%xmm1, 160(%rsp)
	movq	80(%rsp), %rax
	movq	%rax, 176(%rsp)
	movups	88(%rsp), %xmm0
	movups	%xmm0, 184(%rsp)
	movups	104(%rsp), %xmm0
	movups	%xmm0, 200(%rsp)
	movq	120(%rsp), %rax
	movq	%rax, 216(%rsp)
	leaq	224(%rsp), %rbp
	movq	$1, 224(%rsp)
	xorps	%xmm0, %xmm0
	movups	%xmm0, 248(%rsp)
	movups	%xmm0, 232(%rsp)
	leaq	144(%rsp), %rdx
	leaq	272(%rsp), %rcx
	leaq	304(%rsp), %r8
	movq	%rbx, %rdi
	movq	%rdx, %rsi
	callq	secp256k1_ecmult
	movl	264(%rsp), %eax
	movl	%eax, 128(%rsp)
	movq	%rbp, %rbx
	movq	%rbp, %rdi
	movq	%rbp, %rsi
	callq	secp256k1_fe_inv_var
	leaq	384(%rsp), %rbp
	movq	%rbp, %rdi
	movq	%rbx, %rsi
	movq	%r14, 40(%rsp)                  # 8-byte Spill
	movl	%r15d, 24(%rsp)                 # 4-byte Spill
	#APP
	movq	(%rsi), %r10
	movq	8(%rsi), %r11
	movq	16(%rsi), %r12
	movq	24(%rsi), %r13
	movq	32(%rsi), %r14
	movabsq	$4503599627370495, %r15         # imm = 0xFFFFFFFFFFFFF
	leaq	(%r10,%r10), %rax
	mulq	%r13
	movq	%rax, %rbx
	movq	%rdx, %rcx
	leaq	(%r11,%r11), %rax
	mulq	%r12
	addq	%rax, %rbx
	adcq	%rdx, %rcx
	movq	%r14, %rax
	mulq	%r14
	movq	%rax, %r8
	movq	%rdx, %r9
	andq	%r15, %rax
	movabsq	$68719492368, %rdx              # imm = 0x1000003D10
	mulq	%rdx
	addq	%rax, %rbx
	adcq	%rdx, %rcx
	shrdq	$52, %r9, %r8
	movq	%rbx, %rsi
	andq	%r15, %rsi
	movq	%rsi, 344(%rsp)
	shrdq	$52, %rcx, %rbx
	xorq	%rcx, %rcx
	addq	%r14, %r14
	movq	%r10, %rax
	mulq	%r14
	addq	%rax, %rbx
	adcq	%rdx, %rcx
	leaq	(%r11,%r11), %rax
	mulq	%r13
	addq	%rax, %rbx
	adcq	%rdx, %rcx
	movq	%r12, %rax
	mulq	%r12
	addq	%rax, %rbx
	adcq	%rdx, %rcx
	movq	%r8, %rax
	movabsq	$68719492368, %rdx              # imm = 0x1000003D10
	mulq	%rdx
	addq	%rax, %rbx
	adcq	%rdx, %rcx
	movq	%rbx, %rsi
	andq	%r15, %rsi
	shrdq	$52, %rcx, %rbx
	xorq	%rcx, %rcx
	movq	%rsi, %rax
	shrq	$48, %rax
	movq	%rax, 8(%rsp)
	movabsq	$281474976710655, %rax          # imm = 0xFFFFFFFFFFFF
	andq	%rax, %rsi
	movq	%rsi, 16(%rsp)
	movq	%r10, %rax
	mulq	%r10
	movq	%rax, %r8
	movq	%rdx, %r9
	movq	%r11, %rax
	mulq	%r14
	addq	%rax, %rbx
	adcq	%rdx, %rcx
	leaq	(%r12,%r12), %rax
	mulq	%r13
	addq	%rax, %rbx
	adcq	%rdx, %rcx
	movq	%rbx, %rsi
	andq	%r15, %rsi
	shrdq	$52, %rcx, %rbx
	xorq	%rcx, %rcx
	shlq	$4, %rsi
	movq	8(%rsp), %rax
	orq	%rax, %rsi
	movabsq	$4294968273, %rax               # imm = 0x1000003D1
	mulq	%rsi
	addq	%rax, %r8
	adcq	%rdx, %r9
	movq	%r8, %rax
	andq	%r15, %rax
	movq	%rax, (%rdi)
	shrdq	$52, %r9, %r8
	xorq	%r9, %r9
	addq	%r10, %r10
	movq	%r10, %rax
	mulq	%r11
	addq	%rax, %r8
	adcq	%rdx, %r9
	movq	%r12, %rax
	mulq	%r14
	addq	%rax, %rbx
	adcq	%rdx, %rcx
	movq	%r13, %rax
	mulq	%r13
	addq	%rax, %rbx
	adcq	%rdx, %rcx
	movq	%rbx, %rax
	andq	%r15, %rax
	movabsq	$68719492368, %rdx              # imm = 0x1000003D10
	mulq	%rdx
	addq	%rax, %r8
	adcq	%rdx, %r9
	shrdq	$52, %rcx, %rbx
	xorq	%rcx, %rcx
	movq	%r8, %rax
	andq	%r15, %rax
	movq	%rax, 8(%rdi)
	shrdq	$52, %r9, %r8
	xorq	%r9, %r9
	movq	%r10, %rax
	mulq	%r12
	addq	%rax, %r8
	adcq	%rdx, %r9
	movq	16(%rsp), %rsi
	movq	344(%rsp), %r10
	movq	%r11, %rax
	mulq	%r11
	addq	%rax, %r8
	adcq	%rdx, %r9
	movq	%r13, %rax
	mulq	%r14
	addq	%rax, %rbx
	adcq	%rdx, %rcx
	movq	%rbx, %rax
	andq	%r15, %rax
	movabsq	$68719492368, %rdx              # imm = 0x1000003D10
	mulq	%rdx
	addq	%rax, %r8
	adcq	%rdx, %r9
	shrdq	$52, %rcx, %rbx
	movq	%r8, %rax
	andq	%r15, %rax
	movq	%rax, 16(%rdi)
	shrdq	$52, %r9, %r8
	xorq	%r9, %r9
	addq	%r10, %r8
	movq	%rbx, %rax
	movabsq	$68719492368, %rdx              # imm = 0x1000003D10
	mulq	%rdx
	addq	%rax, %r8
	adcq	%rdx, %r9
	movq	%r8, %rax
	andq	%r15, %rax
	movq	%rax, 24(%rdi)
	shrdq	$52, %r9, %r8
	addq	%rsi, %r8
	movq	%r8, 32(%rdi)

	#NO_APP
	leaq	344(%rsp), %rdi
	movq	%rbp, %rbx
	leaq	224(%rsp), %rsi
	#APP
	movq	(%rsi), %r10
	movq	8(%rsi), %r11
	movq	16(%rsi), %r12
	movq	24(%rsi), %r13
	movq	32(%rsi), %r14
	movq	(%rbx), %rax
	mulq	%r13
	movq	%rax, %rcx
	movq	%rdx, %r15
	movq	8(%rbx), %rax
	mulq	%r12
	addq	%rax, %rcx
	adcq	%rdx, %r15
	movq	16(%rbx), %rax
	mulq	%r11
	addq	%rax, %rcx
	adcq	%rdx, %r15
	movq	24(%rbx), %rax
	mulq	%r10
	addq	%rax, %rcx
	adcq	%rdx, %r15
	movq	32(%rbx), %rax
	mulq	%r14
	movq	%rax, %r8
	movq	%rdx, %r9
	movabsq	$4503599627370495, %rdx         # imm = 0xFFFFFFFFFFFFF
	andq	%rdx, %rax
	movabsq	$68719492368, %rdx              # imm = 0x1000003D10
	mulq	%rdx
	addq	%rax, %rcx
	adcq	%rdx, %r15
	shrdq	$52, %r9, %r8
	movq	%rcx, %rsi
	movabsq	$4503599627370495, %rdx         # imm = 0xFFFFFFFFFFFFF
	andq	%rdx, %rsi
	movq	%rsi, 16(%rsp)
	shrdq	$52, %r15, %rcx
	xorq	%r15, %r15
	movq	(%rbx), %rax
	mulq	%r14
	addq	%rax, %rcx
	adcq	%rdx, %r15
	movq	8(%rbx), %rax
	mulq	%r13
	addq	%rax, %rcx
	adcq	%rdx, %r15
	movq	16(%rbx), %rax
	mulq	%r12
	addq	%rax, %rcx
	adcq	%rdx, %r15
	movq	24(%rbx), %rax
	mulq	%r11
	addq	%rax, %rcx
	adcq	%rdx, %r15
	movq	32(%rbx), %rax
	mulq	%r10
	addq	%rax, %rcx
	adcq	%rdx, %r15
	movq	%r8, %rax
	movabsq	$68719492368, %rdx              # imm = 0x1000003D10
	mulq	%rdx
	addq	%rax, %rcx
	adcq	%rdx, %r15
	movq	%rcx, %rsi
	movabsq	$4503599627370495, %rdx         # imm = 0xFFFFFFFFFFFFF
	andq	%rdx, %rsi
	shrdq	$52, %r15, %rcx
	xorq	%r15, %r15
	movq	%rsi, %rax
	shrq	$48, %rax
	movq	%rax, 32(%rsp)
	movabsq	$281474976710655, %rax          # imm = 0xFFFFFFFFFFFF
	andq	%rax, %rsi
	movq	%rsi, 8(%rsp)
	movq	(%rbx), %rax
	mulq	%r10
	movq	%rax, %r8
	movq	%rdx, %r9
	movq	8(%rbx), %rax
	mulq	%r14
	addq	%rax, %rcx
	adcq	%rdx, %r15
	movq	16(%rbx), %rax
	mulq	%r13
	addq	%rax, %rcx
	adcq	%rdx, %r15
	movq	24(%rbx), %rax
	mulq	%r12
	addq	%rax, %rcx
	adcq	%rdx, %r15
	movq	32(%rbx), %rax
	mulq	%r11
	addq	%rax, %rcx
	adcq	%rdx, %r15
	movq	%rcx, %rsi
	movabsq	$4503599627370495, %rdx         # imm = 0xFFFFFFFFFFFFF
	andq	%rdx, %rsi
	shrdq	$52, %r15, %rcx
	xorq	%r15, %r15
	shlq	$4, %rsi
	movq	32(%rsp), %rax
	orq	%rax, %rsi
	movabsq	$4294968273, %rax               # imm = 0x1000003D1
	mulq	%rsi
	addq	%rax, %r8
	adcq	%rdx, %r9
	movq	%r8, %rax
	movabsq	$4503599627370495, %rdx         # imm = 0xFFFFFFFFFFFFF
	andq	%rdx, %rax
	movq	%rax, (%rdi)
	shrdq	$52, %r9, %r8
	xorq	%r9, %r9
	movq	(%rbx), %rax
	mulq	%r11
	addq	%rax, %r8
	adcq	%rdx, %r9
	movq	8(%rbx), %rax
	mulq	%r10
	addq	%rax, %r8
	adcq	%rdx, %r9
	movq	16(%rbx), %rax
	mulq	%r14
	addq	%rax, %rcx
	adcq	%rdx, %r15
	movq	24(%rbx), %rax
	mulq	%r13
	addq	%rax, %rcx
	adcq	%rdx, %r15
	movq	32(%rbx), %rax
	mulq	%r12
	addq	%rax, %rcx
	adcq	%rdx, %r15
	movq	%rcx, %rax
	movabsq	$4503599627370495, %rdx         # imm = 0xFFFFFFFFFFFFF
	andq	%rdx, %rax
	movabsq	$68719492368, %rdx              # imm = 0x1000003D10
	mulq	%rdx
	addq	%rax, %r8
	adcq	%rdx, %r9
	shrdq	$52, %r15, %rcx
	xorq	%r15, %r15
	movq	%r8, %rax
	movabsq	$4503599627370495, %rdx         # imm = 0xFFFFFFFFFFFFF
	andq	%rdx, %rax
	movq	%rax, 8(%rdi)
	shrdq	$52, %r9, %r8
	xorq	%r9, %r9
	movq	(%rbx), %rax
	mulq	%r12
	addq	%rax, %r8
	adcq	%rdx, %r9
	movq	8(%rbx), %rax
	mulq	%r11
	addq	%rax, %r8
	adcq	%rdx, %r9
	movq	16(%rbx), %rax
	mulq	%r10
	addq	%rax, %r8
	adcq	%rdx, %r9
	movq	8(%rsp), %rsi
	movq	16(%rsp), %r10
	movq	24(%rbx), %rax
	mulq	%r14
	addq	%rax, %rcx
	adcq	%rdx, %r15
	movq	32(%rbx), %rax
	mulq	%r13
	addq	%rax, %rcx
	adcq	%rdx, %r15
	movq	%rcx, %rax
	movabsq	$4503599627370495, %rdx         # imm = 0xFFFFFFFFFFFFF
	andq	%rdx, %rax
	movabsq	$68719492368, %rdx              # imm = 0x1000003D10
	mulq	%rdx
	addq	%rax, %r8
	adcq	%rdx, %r9
	shrdq	$52, %r15, %rcx
	movq	%r8, %rax
	movabsq	$4503599627370495, %rdx         # imm = 0xFFFFFFFFFFFFF
	andq	%rdx, %rax
	movq	%rax, 16(%rdi)
	shrdq	$52, %r9, %r8
	xorq	%r9, %r9
	addq	%r10, %r8
	movq	%rcx, %rax
	movabsq	$68719492368, %rdx              # imm = 0x1000003D10
	mulq	%rdx
	addq	%rax, %r8
	adcq	%rdx, %r9
	movq	%r8, %rax
	movabsq	$4503599627370495, %rdx         # imm = 0xFFFFFFFFFFFFF
	andq	%rdx, %rax
	movq	%rax, 24(%rdi)
	shrdq	$52, %r9, %r8
	addq	%rsi, %r8
	movq	%r8, 32(%rdi)

	#NO_APP
	leaq	144(%rsp), %rdi
	movq	%rdi, %rsi
	#APP
	movq	(%rsi), %r10
	movq	8(%rsi), %r11
	movq	16(%rsi), %r12
	movq	24(%rsi), %r13
	movq	32(%rsi), %r14
	movq	(%rbx), %rax
	mulq	%r13
	movq	%rax, %rcx
	movq	%rdx, %r15
	movq	8(%rbx), %rax
	mulq	%r12
	addq	%rax, %rcx
	adcq	%rdx, %r15
	movq	16(%rbx), %rax
	mulq	%r11
	addq	%rax, %rcx
	adcq	%rdx, %r15
	movq	24(%rbx), %rax
	mulq	%r10
	addq	%rax, %rcx
	adcq	%rdx, %r15
	movq	32(%rbx), %rax
	mulq	%r14
	movq	%rax, %r8
	movq	%rdx, %r9
	movabsq	$4503599627370495, %rdx         # imm = 0xFFFFFFFFFFFFF
	andq	%rdx, %rax
	movabsq	$68719492368, %rdx              # imm = 0x1000003D10
	mulq	%rdx
	addq	%rax, %rcx
	adcq	%rdx, %r15
	shrdq	$52, %r9, %r8
	movq	%rcx, %rsi
	movabsq	$4503599627370495, %rdx         # imm = 0xFFFFFFFFFFFFF
	andq	%rdx, %rsi
	movq	%rsi, 16(%rsp)
	shrdq	$52, %r15, %rcx
	xorq	%r15, %r15
	movq	(%rbx), %rax
	mulq	%r14
	addq	%rax, %rcx
	adcq	%rdx, %r15
	movq	8(%rbx), %rax
	mulq	%r13
	addq	%rax, %rcx
	adcq	%rdx, %r15
	movq	16(%rbx), %rax
	mulq	%r12
	addq	%rax, %rcx
	adcq	%rdx, %r15
	movq	24(%rbx), %rax
	mulq	%r11
	addq	%rax, %rcx
	adcq	%rdx, %r15
	movq	32(%rbx), %rax
	mulq	%r10
	addq	%rax, %rcx
	adcq	%rdx, %r15
	movq	%r8, %rax
	movabsq	$68719492368, %rdx              # imm = 0x1000003D10
	mulq	%rdx
	addq	%rax, %rcx
	adcq	%rdx, %r15
	movq	%rcx, %rsi
	movabsq	$4503599627370495, %rdx         # imm = 0xFFFFFFFFFFFFF
	andq	%rdx, %rsi
	shrdq	$52, %r15, %rcx
	xorq	%r15, %r15
	movq	%rsi, %rax
	shrq	$48, %rax
	movq	%rax, 32(%rsp)
	movabsq	$281474976710655, %rax          # imm = 0xFFFFFFFFFFFF
	andq	%rax, %rsi
	movq	%rsi, 8(%rsp)
	movq	(%rbx), %rax
	mulq	%r10
	movq	%rax, %r8
	movq	%rdx, %r9
	movq	8(%rbx), %rax
	mulq	%r14
	addq	%rax, %rcx
	adcq	%rdx, %r15
	movq	16(%rbx), %rax
	mulq	%r13
	addq	%rax, %rcx
	adcq	%rdx, %r15
	movq	24(%rbx), %rax
	mulq	%r12
	addq	%rax, %rcx
	adcq	%rdx, %r15
	movq	32(%rbx), %rax
	mulq	%r11
	addq	%rax, %rcx
	adcq	%rdx, %r15
	movq	%rcx, %rsi
	movabsq	$4503599627370495, %rdx         # imm = 0xFFFFFFFFFFFFF
	andq	%rdx, %rsi
	shrdq	$52, %r15, %rcx
	xorq	%r15, %r15
	shlq	$4, %rsi
	movq	32(%rsp), %rax
	orq	%rax, %rsi
	movabsq	$4294968273, %rax               # imm = 0x1000003D1
	mulq	%rsi
	addq	%rax, %r8
	adcq	%rdx, %r9
	movq	%r8, %rax
	movabsq	$4503599627370495, %rdx         # imm = 0xFFFFFFFFFFFFF
	andq	%rdx, %rax
	movq	%rax, (%rdi)
	shrdq	$52, %r9, %r8
	xorq	%r9, %r9
	movq	(%rbx), %rax
	mulq	%r11
	addq	%rax, %r8
	adcq	%rdx, %r9
	movq	8(%rbx), %rax
	mulq	%r10
	addq	%rax, %r8
	adcq	%rdx, %r9
	movq	16(%rbx), %rax
	mulq	%r14
	addq	%rax, %rcx
	adcq	%rdx, %r15
	movq	24(%rbx), %rax
	mulq	%r13
	addq	%rax, %rcx
	adcq	%rdx, %r15
	movq	32(%rbx), %rax
	mulq	%r12
	addq	%rax, %rcx
	adcq	%rdx, %r15
	movq	%rcx, %rax
	movabsq	$4503599627370495, %rdx         # imm = 0xFFFFFFFFFFFFF
	andq	%rdx, %rax
	movabsq	$68719492368, %rdx              # imm = 0x1000003D10
	mulq	%rdx
	addq	%rax, %r8
	adcq	%rdx, %r9
	shrdq	$52, %r15, %rcx
	xorq	%r15, %r15
	movq	%r8, %rax
	movabsq	$4503599627370495, %rdx         # imm = 0xFFFFFFFFFFFFF
	andq	%rdx, %rax
	movq	%rax, 8(%rdi)
	shrdq	$52, %r9, %r8
	xorq	%r9, %r9
	movq	(%rbx), %rax
	mulq	%r12
	addq	%rax, %r8
	adcq	%rdx, %r9
	movq	8(%rbx), %rax
	mulq	%r11
	addq	%rax, %r8
	adcq	%rdx, %r9
	movq	16(%rbx), %rax
	mulq	%r10
	addq	%rax, %r8
	adcq	%rdx, %r9
	movq	8(%rsp), %rsi
	movq	16(%rsp), %r10
	movq	24(%rbx), %rax
	mulq	%r14
	addq	%rax, %rcx
	adcq	%rdx, %r15
	movq	32(%rbx), %rax
	mulq	%r13
	addq	%rax, %rcx
	adcq	%rdx, %r15
	movq	%rcx, %rax
	movabsq	$4503599627370495, %rdx         # imm = 0xFFFFFFFFFFFFF
	andq	%rdx, %rax
	movabsq	$68719492368, %rdx              # imm = 0x1000003D10
	mulq	%rdx
	addq	%rax, %r8
	adcq	%rdx, %r9
	shrdq	$52, %r15, %rcx
	movq	%r8, %rax
	movabsq	$4503599627370495, %rdx         # imm = 0xFFFFFFFFFFFFF
	andq	%rdx, %rax
	movq	%rax, 16(%rdi)
	shrdq	$52, %r9, %r8
	xorq	%r9, %r9
	addq	%r10, %r8
	movq	%rcx, %rax
	movabsq	$68719492368, %rdx              # imm = 0x1000003D10
	mulq	%rdx
	addq	%rax, %r8
	adcq	%rdx, %r9
	movq	%r8, %rax
	movabsq	$4503599627370495, %rdx         # imm = 0xFFFFFFFFFFFFF
	andq	%rdx, %rax
	movq	%rax, 24(%rdi)
	shrdq	$52, %r9, %r8
	addq	%rsi, %r8
	movq	%r8, 32(%rdi)

	#NO_APP
	leaq	344(%rsp), %rbx
	leaq	184(%rsp), %rdi
	movq	%rdi, %rsi
	#APP
	movq	(%rsi), %r10
	movq	8(%rsi), %r11
	movq	16(%rsi), %r12
	movq	24(%rsi), %r13
	movq	32(%rsi), %r14
	movq	(%rbx), %rax
	mulq	%r13
	movq	%rax, %rcx
	movq	%rdx, %r15
	movq	8(%rbx), %rax
	mulq	%r12
	addq	%rax, %rcx
	adcq	%rdx, %r15
	movq	16(%rbx), %rax
	mulq	%r11
	addq	%rax, %rcx
	adcq	%rdx, %r15
	movq	24(%rbx), %rax
	mulq	%r10
	addq	%rax, %rcx
	adcq	%rdx, %r15
	movq	32(%rbx), %rax
	mulq	%r14
	movq	%rax, %r8
	movq	%rdx, %r9
	movabsq	$4503599627370495, %rdx         # imm = 0xFFFFFFFFFFFFF
	andq	%rdx, %rax
	movabsq	$68719492368, %rdx              # imm = 0x1000003D10
	mulq	%rdx
	addq	%rax, %rcx
	adcq	%rdx, %r15
	shrdq	$52, %r9, %r8
	movq	%rcx, %rsi
	movabsq	$4503599627370495, %rdx         # imm = 0xFFFFFFFFFFFFF
	andq	%rdx, %rsi
	movq	%rsi, 16(%rsp)
	shrdq	$52, %r15, %rcx
	xorq	%r15, %r15
	movq	(%rbx), %rax
	mulq	%r14
	addq	%rax, %rcx
	adcq	%rdx, %r15
	movq	8(%rbx), %rax
	mulq	%r13
	addq	%rax, %rcx
	adcq	%rdx, %r15
	movq	16(%rbx), %rax
	mulq	%r12
	addq	%rax, %rcx
	adcq	%rdx, %r15
	movq	24(%rbx), %rax
	mulq	%r11
	addq	%rax, %rcx
	adcq	%rdx, %r15
	movq	32(%rbx), %rax
	mulq	%r10
	addq	%rax, %rcx
	adcq	%rdx, %r15
	movq	%r8, %rax
	movabsq	$68719492368, %rdx              # imm = 0x1000003D10
	mulq	%rdx
	addq	%rax, %rcx
	adcq	%rdx, %r15
	movq	%rcx, %rsi
	movabsq	$4503599627370495, %rdx         # imm = 0xFFFFFFFFFFFFF
	andq	%rdx, %rsi
	shrdq	$52, %r15, %rcx
	xorq	%r15, %r15
	movq	%rsi, %rax
	shrq	$48, %rax
	movq	%rax, 32(%rsp)
	movabsq	$281474976710655, %rax          # imm = 0xFFFFFFFFFFFF
	andq	%rax, %rsi
	movq	%rsi, 8(%rsp)
	movq	(%rbx), %rax
	mulq	%r10
	movq	%rax, %r8
	movq	%rdx, %r9
	movq	8(%rbx), %rax
	mulq	%r14
	addq	%rax, %rcx
	adcq	%rdx, %r15
	movq	16(%rbx), %rax
	mulq	%r13
	addq	%rax, %rcx
	adcq	%rdx, %r15
	movq	24(%rbx), %rax
	mulq	%r12
	addq	%rax, %rcx
	adcq	%rdx, %r15
	movq	32(%rbx), %rax
	mulq	%r11
	addq	%rax, %rcx
	adcq	%rdx, %r15
	movq	%rcx, %rsi
	movabsq	$4503599627370495, %rdx         # imm = 0xFFFFFFFFFFFFF
	andq	%rdx, %rsi
	shrdq	$52, %r15, %rcx
	xorq	%r15, %r15
	shlq	$4, %rsi
	movq	32(%rsp), %rax
	orq	%rax, %rsi
	movabsq	$4294968273, %rax               # imm = 0x1000003D1
	mulq	%rsi
	addq	%rax, %r8
	adcq	%rdx, %r9
	movq	%r8, %rax
	movabsq	$4503599627370495, %rdx         # imm = 0xFFFFFFFFFFFFF
	andq	%rdx, %rax
	movq	%rax, (%rdi)
	shrdq	$52, %r9, %r8
	xorq	%r9, %r9
	movq	(%rbx), %rax
	mulq	%r11
	addq	%rax, %r8
	adcq	%rdx, %r9
	movq	8(%rbx), %rax
	mulq	%r10
	addq	%rax, %r8
	adcq	%rdx, %r9
	movq	16(%rbx), %rax
	mulq	%r14
	addq	%rax, %rcx
	adcq	%rdx, %r15
	movq	24(%rbx), %rax
	mulq	%r13
	addq	%rax, %rcx
	adcq	%rdx, %r15
	movq	32(%rbx), %rax
	mulq	%r12
	addq	%rax, %rcx
	adcq	%rdx, %r15
	movq	%rcx, %rax
	movabsq	$4503599627370495, %rdx         # imm = 0xFFFFFFFFFFFFF
	andq	%rdx, %rax
	movabsq	$68719492368, %rdx              # imm = 0x1000003D10
	mulq	%rdx
	addq	%rax, %r8
	adcq	%rdx, %r9
	shrdq	$52, %r15, %rcx
	xorq	%r15, %r15
	movq	%r8, %rax
	movabsq	$4503599627370495, %rdx         # imm = 0xFFFFFFFFFFFFF
	andq	%rdx, %rax
	movq	%rax, 8(%rdi)
	shrdq	$52, %r9, %r8
	xorq	%r9, %r9
	movq	(%rbx), %rax
	mulq	%r12
	addq	%rax, %r8
	adcq	%rdx, %r9
	movq	8(%rbx), %rax
	mulq	%r11
	addq	%rax, %r8
	adcq	%rdx, %r9
	movq	16(%rbx), %rax
	mulq	%r10
	addq	%rax, %r8
	adcq	%rdx, %r9
	movq	8(%rsp), %rsi
	movq	16(%rsp), %r10
	movq	24(%rbx), %rax
	mulq	%r14
	addq	%rax, %rcx
	adcq	%rdx, %r15
	movq	32(%rbx), %rax
	mulq	%r13
	addq	%rax, %rcx
	adcq	%rdx, %r15
	movq	%rcx, %rax
	movabsq	$4503599627370495, %rdx         # imm = 0xFFFFFFFFFFFFF
	andq	%rdx, %rax
	movabsq	$68719492368, %rdx              # imm = 0x1000003D10
	mulq	%rdx
	addq	%rax, %r8
	adcq	%rdx, %r9
	shrdq	$52, %r15, %rcx
	movq	%r8, %rax
	movabsq	$4503599627370495, %rdx         # imm = 0xFFFFFFFFFFFFF
	andq	%rdx, %rax
	movq	%rax, 16(%rdi)
	shrdq	$52, %r9, %r8
	xorq	%r9, %r9
	addq	%r10, %r8
	movq	%rcx, %rax
	movabsq	$68719492368, %rdx              # imm = 0x1000003D10
	mulq	%rdx
	addq	%rax, %r8
	adcq	%rdx, %r9
	movq	%r8, %rax
	movabsq	$4503599627370495, %rdx         # imm = 0xFFFFFFFFFFFFF
	andq	%rdx, %rax
	movq	%rax, 24(%rdi)
	shrdq	$52, %r9, %r8
	addq	%rsi, %r8
	movq	%r8, 32(%rdi)

	#NO_APP
	xorps	%xmm0, %xmm0
	movups	%xmm0, 232(%rsp)
	movaps	144(%rsp), %xmm0
	movdqa	160(%rsp), %xmm1
	movaps	%xmm0, 48(%rsp)
	movdqa	%xmm1, 64(%rsp)
	movq	176(%rsp), %rax
	movq	%rax, 80(%rsp)
	movups	184(%rsp), %xmm0
	movups	%xmm0, 88(%rsp)
	movdqu	200(%rsp), %xmm0
	movdqu	%xmm0, 104(%rsp)
	movq	216(%rsp), %rax
	movq	%rax, 120(%rsp)
	xorl	%ecx, %ecx
	cmpl	$34, 24(%rsp)                   # 4-byte Folded Reload
	setl	%cl
	leaq	48(%rsp), %rdi
	leaq	28(%rsp), %rdx
	movq	40(%rsp), %rsi                  # 8-byte Reload
	callq	secp256k1_eckey_pubkey_serialize
	movl	%eax, %ebp
	jmp	.LBB20_13
.LBB20_1:
	movq	stderr@GOTPCREL(%rip), %rax
	movq	(%rax), %rdi
	leaq	.L.str(%rip), %rsi
	leaq	.L.str.1(%rip), %rdx
	leaq	.L.str.2(%rip), %r8
	movl	$363, %ecx                      # imm = 0x16B
	jmp	.LBB20_2
.LBB20_4:
	movq	stderr@GOTPCREL(%rip), %rax
	movq	(%rax), %rdi
	leaq	.L.str(%rip), %rsi
	leaq	.L.str.1(%rip), %rdx
	leaq	.L.str.3(%rip), %r8
	movl	$364, %ecx                      # imm = 0x16C
	jmp	.LBB20_2
.LBB20_6:
	movq	stderr@GOTPCREL(%rip), %rax
	movq	(%rax), %rdi
	leaq	.L.str(%rip), %rsi
	leaq	.L.str.1(%rip), %rdx
	leaq	.L.str.6(%rip), %r8
	movl	$365, %ecx                      # imm = 0x16D
	jmp	.LBB20_2
.LBB20_8:
	movq	stderr@GOTPCREL(%rip), %rax
	movq	(%rax), %rdi
	leaq	.L.str(%rip), %rsi
	leaq	.L.str.1(%rip), %rdx
	leaq	.L.str.14(%rip), %r8
	movl	$366, %ecx                      # imm = 0x16E
.LBB20_2:
	xorl	%eax, %eax
	callq	fprintf@PLT
	callq	abort@PLT
.Lfunc_end20:
	.size	secp256k1_ec_pubkey_tweak_mul, .Lfunc_end20-secp256k1_ec_pubkey_tweak_mul
	.cfi_endproc
                                        # -- End function
	.globl	secp256k1_ec_privkey_export     # -- Begin function secp256k1_ec_privkey_export
	.p2align	4, 0x90
	.type	secp256k1_ec_privkey_export,@function
secp256k1_ec_privkey_export:            # @secp256k1_ec_privkey_export
	.cfi_startproc
# %bb.0:
	pushq	%rbp
	.cfi_def_cfa_offset 16
	pushq	%r15
	.cfi_def_cfa_offset 24
	pushq	%r14
	.cfi_def_cfa_offset 32
	pushq	%r13
	.cfi_def_cfa_offset 40
	pushq	%r12
	.cfi_def_cfa_offset 48
	pushq	%rbx
	.cfi_def_cfa_offset 56
	subq	$392, %rsp                      # imm = 0x188
	.cfi_def_cfa_offset 448
	.cfi_offset %rbx, -56
	.cfi_offset %r12, -48
	.cfi_offset %r13, -40
	.cfi_offset %r14, -32
	.cfi_offset %r15, -24
	.cfi_offset %rbp, -16
	testq	%rsi, %rsi
	je	.LBB21_1
# %bb.3:
	testq	%rdx, %rdx
	je	.LBB21_4
# %bb.5:
	testq	%rcx, %rcx
	je	.LBB21_6
# %bb.7:
	movq	%rdi, %rbx
	testq	%rdi, %rdi
	je	.LBB21_8
# %bb.9:
	movl	%r8d, 36(%rsp)                  # 4-byte Spill
	movq	%rdx, 40(%rsp)                  # 8-byte Spill
	movq	%rcx, 88(%rsp)                  # 8-byte Spill
	cmpq	$0, 8(%rbx)
	je	.LBB21_10
# %bb.11:
	addq	$8, %rbx
	leaq	56(%rsp), %r14
	movq	%r14, %rdi
	xorl	%edx, %edx
	callq	secp256k1_scalar_set_b32
	movl	$0, 12(%rsp)
	leaq	96(%rsp), %rsi
	movq	%rbx, %rdi
	movq	%r14, %rdx
	callq	secp256k1_ecmult_gen
	movl	216(%rsp), %eax
	movl	%eax, 304(%rsp)
	leaq	176(%rsp), %rbp
	movq	%rbp, %rdi
	movq	%rbp, %rsi
	callq	secp256k1_fe_inv_var
	leaq	352(%rsp), %rdi
	movq	%rbp, %rsi
	#APP
	movq	(%rsi), %r10
	movq	8(%rsi), %r11
	movq	16(%rsi), %r12
	movq	24(%rsi), %r13
	movq	32(%rsi), %r14
	movabsq	$4503599627370495, %r15         # imm = 0xFFFFFFFFFFFFF
	leaq	(%r10,%r10), %rax
	mulq	%r13
	movq	%rax, %rbx
	movq	%rdx, %rcx
	leaq	(%r11,%r11), %rax
	mulq	%r12
	addq	%rax, %rbx
	adcq	%rdx, %rcx
	movq	%r14, %rax
	mulq	%r14
	movq	%rax, %r8
	movq	%rdx, %r9
	andq	%r15, %rax
	movabsq	$68719492368, %rdx              # imm = 0x1000003D10
	mulq	%rdx
	addq	%rax, %rbx
	adcq	%rdx, %rcx
	shrdq	$52, %r9, %r8
	movq	%rbx, %rsi
	andq	%r15, %rsi
	movq	%rsi, 312(%rsp)
	shrdq	$52, %rcx, %rbx
	xorq	%rcx, %rcx
	addq	%r14, %r14
	movq	%r10, %rax
	mulq	%r14
	addq	%rax, %rbx
	adcq	%rdx, %rcx
	leaq	(%r11,%r11), %rax
	mulq	%r13
	addq	%rax, %rbx
	adcq	%rdx, %rcx
	movq	%r12, %rax
	mulq	%r12
	addq	%rax, %rbx
	adcq	%rdx, %rcx
	movq	%r8, %rax
	movabsq	$68719492368, %rdx              # imm = 0x1000003D10
	mulq	%rdx
	addq	%rax, %rbx
	adcq	%rdx, %rcx
	movq	%rbx, %rsi
	andq	%r15, %rsi
	shrdq	$52, %rcx, %rbx
	xorq	%rcx, %rcx
	movq	%rsi, %rax
	shrq	$48, %rax
	movq	%rax, 16(%rsp)
	movabsq	$281474976710655, %rax          # imm = 0xFFFFFFFFFFFF
	andq	%rax, %rsi
	movq	%rsi, 24(%rsp)
	movq	%r10, %rax
	mulq	%r10
	movq	%rax, %r8
	movq	%rdx, %r9
	movq	%r11, %rax
	mulq	%r14
	addq	%rax, %rbx
	adcq	%rdx, %rcx
	leaq	(%r12,%r12), %rax
	mulq	%r13
	addq	%rax, %rbx
	adcq	%rdx, %rcx
	movq	%rbx, %rsi
	andq	%r15, %rsi
	shrdq	$52, %rcx, %rbx
	xorq	%rcx, %rcx
	shlq	$4, %rsi
	movq	16(%rsp), %rax
	orq	%rax, %rsi
	movabsq	$4294968273, %rax               # imm = 0x1000003D1
	mulq	%rsi
	addq	%rax, %r8
	adcq	%rdx, %r9
	movq	%r8, %rax
	andq	%r15, %rax
	movq	%rax, (%rdi)
	shrdq	$52, %r9, %r8
	xorq	%r9, %r9
	addq	%r10, %r10
	movq	%r10, %rax
	mulq	%r11
	addq	%rax, %r8
	adcq	%rdx, %r9
	movq	%r12, %rax
	mulq	%r14
	addq	%rax, %rbx
	adcq	%rdx, %rcx
	movq	%r13, %rax
	mulq	%r13
	addq	%rax, %rbx
	adcq	%rdx, %rcx
	movq	%rbx, %rax
	andq	%r15, %rax
	movabsq	$68719492368, %rdx              # imm = 0x1000003D10
	mulq	%rdx
	addq	%rax, %r8
	adcq	%rdx, %r9
	shrdq	$52, %rcx, %rbx
	xorq	%rcx, %rcx
	movq	%r8, %rax
	andq	%r15, %rax
	movq	%rax, 8(%rdi)
	shrdq	$52, %r9, %r8
	xorq	%r9, %r9
	movq	%r10, %rax
	mulq	%r12
	addq	%rax, %r8
	adcq	%rdx, %r9
	movq	24(%rsp), %rsi
	movq	312(%rsp), %r10
	movq	%r11, %rax
	mulq	%r11
	addq	%rax, %r8
	adcq	%rdx, %r9
	movq	%r13, %rax
	mulq	%r14
	addq	%rax, %rbx
	adcq	%rdx, %rcx
	movq	%rbx, %rax
	andq	%r15, %rax
	movabsq	$68719492368, %rdx              # imm = 0x1000003D10
	mulq	%rdx
	addq	%rax, %r8
	adcq	%rdx, %r9
	shrdq	$52, %rcx, %rbx
	movq	%r8, %rax
	andq	%r15, %rax
	movq	%rax, 16(%rdi)
	shrdq	$52, %r9, %r8
	xorq	%r9, %r9
	addq	%r10, %r8
	movq	%rbx, %rax
	movabsq	$68719492368, %rdx              # imm = 0x1000003D10
	mulq	%rdx
	addq	%rax, %r8
	adcq	%rdx, %r9
	movq	%r8, %rax
	andq	%r15, %rax
	movq	%rax, 24(%rdi)
	shrdq	$52, %r9, %r8
	addq	%rsi, %r8
	movq	%r8, 32(%rdi)

	#NO_APP
	leaq	312(%rsp), %rdi
	leaq	352(%rsp), %rbx
	movq	%rbp, %rsi
	#APP
	movq	(%rsi), %r10
	movq	8(%rsi), %r11
	movq	16(%rsi), %r12
	movq	24(%rsi), %r13
	movq	32(%rsi), %r14
	movq	(%rbx), %rax
	mulq	%r13
	movq	%rax, %rcx
	movq	%rdx, %r15
	movq	8(%rbx), %rax
	mulq	%r12
	addq	%rax, %rcx
	adcq	%rdx, %r15
	movq	16(%rbx), %rax
	mulq	%r11
	addq	%rax, %rcx
	adcq	%rdx, %r15
	movq	24(%rbx), %rax
	mulq	%r10
	addq	%rax, %rcx
	adcq	%rdx, %r15
	movq	32(%rbx), %rax
	mulq	%r14
	movq	%rax, %r8
	movq	%rdx, %r9
	movabsq	$4503599627370495, %rdx         # imm = 0xFFFFFFFFFFFFF
	andq	%rdx, %rax
	movabsq	$68719492368, %rdx              # imm = 0x1000003D10
	mulq	%rdx
	addq	%rax, %rcx
	adcq	%rdx, %r15
	shrdq	$52, %r9, %r8
	movq	%rcx, %rsi
	movabsq	$4503599627370495, %rdx         # imm = 0xFFFFFFFFFFFFF
	andq	%rdx, %rsi
	movq	%rsi, 24(%rsp)
	shrdq	$52, %r15, %rcx
	xorq	%r15, %r15
	movq	(%rbx), %rax
	mulq	%r14
	addq	%rax, %rcx
	adcq	%rdx, %r15
	movq	8(%rbx), %rax
	mulq	%r13
	addq	%rax, %rcx
	adcq	%rdx, %r15
	movq	16(%rbx), %rax
	mulq	%r12
	addq	%rax, %rcx
	adcq	%rdx, %r15
	movq	24(%rbx), %rax
	mulq	%r11
	addq	%rax, %rcx
	adcq	%rdx, %r15
	movq	32(%rbx), %rax
	mulq	%r10
	addq	%rax, %rcx
	adcq	%rdx, %r15
	movq	%r8, %rax
	movabsq	$68719492368, %rdx              # imm = 0x1000003D10
	mulq	%rdx
	addq	%rax, %rcx
	adcq	%rdx, %r15
	movq	%rcx, %rsi
	movabsq	$4503599627370495, %rdx         # imm = 0xFFFFFFFFFFFFF
	andq	%rdx, %rsi
	shrdq	$52, %r15, %rcx
	xorq	%r15, %r15
	movq	%rsi, %rax
	shrq	$48, %rax
	movq	%rax, 48(%rsp)
	movabsq	$281474976710655, %rax          # imm = 0xFFFFFFFFFFFF
	andq	%rax, %rsi
	movq	%rsi, 16(%rsp)
	movq	(%rbx), %rax
	mulq	%r10
	movq	%rax, %r8
	movq	%rdx, %r9
	movq	8(%rbx), %rax
	mulq	%r14
	addq	%rax, %rcx
	adcq	%rdx, %r15
	movq	16(%rbx), %rax
	mulq	%r13
	addq	%rax, %rcx
	adcq	%rdx, %r15
	movq	24(%rbx), %rax
	mulq	%r12
	addq	%rax, %rcx
	adcq	%rdx, %r15
	movq	32(%rbx), %rax
	mulq	%r11
	addq	%rax, %rcx
	adcq	%rdx, %r15
	movq	%rcx, %rsi
	movabsq	$4503599627370495, %rdx         # imm = 0xFFFFFFFFFFFFF
	andq	%rdx, %rsi
	shrdq	$52, %r15, %rcx
	xorq	%r15, %r15
	shlq	$4, %rsi
	movq	48(%rsp), %rax
	orq	%rax, %rsi
	movabsq	$4294968273, %rax               # imm = 0x1000003D1
	mulq	%rsi
	addq	%rax, %r8
	adcq	%rdx, %r9
	movq	%r8, %rax
	movabsq	$4503599627370495, %rdx         # imm = 0xFFFFFFFFFFFFF
	andq	%rdx, %rax
	movq	%rax, (%rdi)
	shrdq	$52, %r9, %r8
	xorq	%r9, %r9
	movq	(%rbx), %rax
	mulq	%r11
	addq	%rax, %r8
	adcq	%rdx, %r9
	movq	8(%rbx), %rax
	mulq	%r10
	addq	%rax, %r8
	adcq	%rdx, %r9
	movq	16(%rbx), %rax
	mulq	%r14
	addq	%rax, %rcx
	adcq	%rdx, %r15
	movq	24(%rbx), %rax
	mulq	%r13
	addq	%rax, %rcx
	adcq	%rdx, %r15
	movq	32(%rbx), %rax
	mulq	%r12
	addq	%rax, %rcx
	adcq	%rdx, %r15
	movq	%rcx, %rax
	movabsq	$4503599627370495, %rdx         # imm = 0xFFFFFFFFFFFFF
	andq	%rdx, %rax
	movabsq	$68719492368, %rdx              # imm = 0x1000003D10
	mulq	%rdx
	addq	%rax, %r8
	adcq	%rdx, %r9
	shrdq	$52, %r15, %rcx
	xorq	%r15, %r15
	movq	%r8, %rax
	movabsq	$4503599627370495, %rdx         # imm = 0xFFFFFFFFFFFFF
	andq	%rdx, %rax
	movq	%rax, 8(%rdi)
	shrdq	$52, %r9, %r8
	xorq	%r9, %r9
	movq	(%rbx), %rax
	mulq	%r12
	addq	%rax, %r8
	adcq	%rdx, %r9
	movq	8(%rbx), %rax
	mulq	%r11
	addq	%rax, %r8
	adcq	%rdx, %r9
	movq	16(%rbx), %rax
	mulq	%r10
	addq	%rax, %r8
	adcq	%rdx, %r9
	movq	16(%rsp), %rsi
	movq	24(%rsp), %r10
	movq	24(%rbx), %rax
	mulq	%r14
	addq	%rax, %rcx
	adcq	%rdx, %r15
	movq	32(%rbx), %rax
	mulq	%r13
	addq	%rax, %rcx
	adcq	%rdx, %r15
	movq	%rcx, %rax
	movabsq	$4503599627370495, %rdx         # imm = 0xFFFFFFFFFFFFF
	andq	%rdx, %rax
	movabsq	$68719492368, %rdx              # imm = 0x1000003D10
	mulq	%rdx
	addq	%rax, %r8
	adcq	%rdx, %r9
	shrdq	$52, %r15, %rcx
	movq	%r8, %rax
	movabsq	$4503599627370495, %rdx         # imm = 0xFFFFFFFFFFFFF
	andq	%rdx, %rax
	movq	%rax, 16(%rdi)
	shrdq	$52, %r9, %r8
	xorq	%r9, %r9
	addq	%r10, %r8
	movq	%rcx, %rax
	movabsq	$68719492368, %rdx              # imm = 0x1000003D10
	mulq	%rdx
	addq	%rax, %r8
	adcq	%rdx, %r9
	movq	%r8, %rax
	movabsq	$4503599627370495, %rdx         # imm = 0xFFFFFFFFFFFFF
	andq	%rdx, %rax
	movq	%rax, 24(%rdi)
	shrdq	$52, %r9, %r8
	addq	%rsi, %r8
	movq	%r8, 32(%rdi)

	#NO_APP
	leaq	352(%rsp), %rbx
	leaq	96(%rsp), %rdi
	movq	%rdi, %rsi
	#APP
	movq	(%rsi), %r10
	movq	8(%rsi), %r11
	movq	16(%rsi), %r12
	movq	24(%rsi), %r13
	movq	32(%rsi), %r14
	movq	(%rbx), %rax
	mulq	%r13
	movq	%rax, %rcx
	movq	%rdx, %r15
	movq	8(%rbx), %rax
	mulq	%r12
	addq	%rax, %rcx
	adcq	%rdx, %r15
	movq	16(%rbx), %rax
	mulq	%r11
	addq	%rax, %rcx
	adcq	%rdx, %r15
	movq	24(%rbx), %rax
	mulq	%r10
	addq	%rax, %rcx
	adcq	%rdx, %r15
	movq	32(%rbx), %rax
	mulq	%r14
	movq	%rax, %r8
	movq	%rdx, %r9
	movabsq	$4503599627370495, %rdx         # imm = 0xFFFFFFFFFFFFF
	andq	%rdx, %rax
	movabsq	$68719492368, %rdx              # imm = 0x1000003D10
	mulq	%rdx
	addq	%rax, %rcx
	adcq	%rdx, %r15
	shrdq	$52, %r9, %r8
	movq	%rcx, %rsi
	movabsq	$4503599627370495, %rdx         # imm = 0xFFFFFFFFFFFFF
	andq	%rdx, %rsi
	movq	%rsi, 24(%rsp)
	shrdq	$52, %r15, %rcx
	xorq	%r15, %r15
	movq	(%rbx), %rax
	mulq	%r14
	addq	%rax, %rcx
	adcq	%rdx, %r15
	movq	8(%rbx), %rax
	mulq	%r13
	addq	%rax, %rcx
	adcq	%rdx, %r15
	movq	16(%rbx), %rax
	mulq	%r12
	addq	%rax, %rcx
	adcq	%rdx, %r15
	movq	24(%rbx), %rax
	mulq	%r11
	addq	%rax, %rcx
	adcq	%rdx, %r15
	movq	32(%rbx), %rax
	mulq	%r10
	addq	%rax, %rcx
	adcq	%rdx, %r15
	movq	%r8, %rax
	movabsq	$68719492368, %rdx              # imm = 0x1000003D10
	mulq	%rdx
	addq	%rax, %rcx
	adcq	%rdx, %r15
	movq	%rcx, %rsi
	movabsq	$4503599627370495, %rdx         # imm = 0xFFFFFFFFFFFFF
	andq	%rdx, %rsi
	shrdq	$52, %r15, %rcx
	xorq	%r15, %r15
	movq	%rsi, %rax
	shrq	$48, %rax
	movq	%rax, 48(%rsp)
	movabsq	$281474976710655, %rax          # imm = 0xFFFFFFFFFFFF
	andq	%rax, %rsi
	movq	%rsi, 16(%rsp)
	movq	(%rbx), %rax
	mulq	%r10
	movq	%rax, %r8
	movq	%rdx, %r9
	movq	8(%rbx), %rax
	mulq	%r14
	addq	%rax, %rcx
	adcq	%rdx, %r15
	movq	16(%rbx), %rax
	mulq	%r13
	addq	%rax, %rcx
	adcq	%rdx, %r15
	movq	24(%rbx), %rax
	mulq	%r12
	addq	%rax, %rcx
	adcq	%rdx, %r15
	movq	32(%rbx), %rax
	mulq	%r11
	addq	%rax, %rcx
	adcq	%rdx, %r15
	movq	%rcx, %rsi
	movabsq	$4503599627370495, %rdx         # imm = 0xFFFFFFFFFFFFF
	andq	%rdx, %rsi
	shrdq	$52, %r15, %rcx
	xorq	%r15, %r15
	shlq	$4, %rsi
	movq	48(%rsp), %rax
	orq	%rax, %rsi
	movabsq	$4294968273, %rax               # imm = 0x1000003D1
	mulq	%rsi
	addq	%rax, %r8
	adcq	%rdx, %r9
	movq	%r8, %rax
	movabsq	$4503599627370495, %rdx         # imm = 0xFFFFFFFFFFFFF
	andq	%rdx, %rax
	movq	%rax, (%rdi)
	shrdq	$52, %r9, %r8
	xorq	%r9, %r9
	movq	(%rbx), %rax
	mulq	%r11
	addq	%rax, %r8
	adcq	%rdx, %r9
	movq	8(%rbx), %rax
	mulq	%r10
	addq	%rax, %r8
	adcq	%rdx, %r9
	movq	16(%rbx), %rax
	mulq	%r14
	addq	%rax, %rcx
	adcq	%rdx, %r15
	movq	24(%rbx), %rax
	mulq	%r13
	addq	%rax, %rcx
	adcq	%rdx, %r15
	movq	32(%rbx), %rax
	mulq	%r12
	addq	%rax, %rcx
	adcq	%rdx, %r15
	movq	%rcx, %rax
	movabsq	$4503599627370495, %rdx         # imm = 0xFFFFFFFFFFFFF
	andq	%rdx, %rax
	movabsq	$68719492368, %rdx              # imm = 0x1000003D10
	mulq	%rdx
	addq	%rax, %r8
	adcq	%rdx, %r9
	shrdq	$52, %r15, %rcx
	xorq	%r15, %r15
	movq	%r8, %rax
	movabsq	$4503599627370495, %rdx         # imm = 0xFFFFFFFFFFFFF
	andq	%rdx, %rax
	movq	%rax, 8(%rdi)
	shrdq	$52, %r9, %r8
	xorq	%r9, %r9
	movq	(%rbx), %rax
	mulq	%r12
	addq	%rax, %r8
	adcq	%rdx, %r9
	movq	8(%rbx), %rax
	mulq	%r11
	addq	%rax, %r8
	adcq	%rdx, %r9
	movq	16(%rbx), %rax
	mulq	%r10
	addq	%rax, %r8
	adcq	%rdx, %r9
	movq	16(%rsp), %rsi
	movq	24(%rsp), %r10
	movq	24(%rbx), %rax
	mulq	%r14
	addq	%rax, %rcx
	adcq	%rdx, %r15
	movq	32(%rbx), %rax
	mulq	%r13
	addq	%rax, %rcx
	adcq	%rdx, %r15
	movq	%rcx, %rax
	movabsq	$4503599627370495, %rdx         # imm = 0xFFFFFFFFFFFFF
	andq	%rdx, %rax
	movabsq	$68719492368, %rdx              # imm = 0x1000003D10
	mulq	%rdx
	addq	%rax, %r8
	adcq	%rdx, %r9
	shrdq	$52, %r15, %rcx
	movq	%r8, %rax
	movabsq	$4503599627370495, %rdx         # imm = 0xFFFFFFFFFFFFF
	andq	%rdx, %rax
	movq	%rax, 16(%rdi)
	shrdq	$52, %r9, %r8
	xorq	%r9, %r9
	addq	%r10, %r8
	movq	%rcx, %rax
	movabsq	$68719492368, %rdx              # imm = 0x1000003D10
	mulq	%rdx
	addq	%rax, %r8
	adcq	%rdx, %r9
	movq	%r8, %rax
	movabsq	$4503599627370495, %rdx         # imm = 0xFFFFFFFFFFFFF
	andq	%rdx, %rax
	movq	%rax, 24(%rdi)
	shrdq	$52, %r9, %r8
	addq	%rsi, %r8
	movq	%r8, 32(%rdi)

	#NO_APP
	leaq	136(%rsp), %rdi
	leaq	312(%rsp), %rbx
	movq	%rdi, %rsi
	#APP
	movq	(%rsi), %r10
	movq	8(%rsi), %r11
	movq	16(%rsi), %r12
	movq	24(%rsi), %r13
	movq	32(%rsi), %r14
	movq	(%rbx), %rax
	mulq	%r13
	movq	%rax, %rcx
	movq	%rdx, %r15
	movq	8(%rbx), %rax
	mulq	%r12
	addq	%rax, %rcx
	adcq	%rdx, %r15
	movq	16(%rbx), %rax
	mulq	%r11
	addq	%rax, %rcx
	adcq	%rdx, %r15
	movq	24(%rbx), %rax
	mulq	%r10
	addq	%rax, %rcx
	adcq	%rdx, %r15
	movq	32(%rbx), %rax
	mulq	%r14
	movq	%rax, %r8
	movq	%rdx, %r9
	movabsq	$4503599627370495, %rdx         # imm = 0xFFFFFFFFFFFFF
	andq	%rdx, %rax
	movabsq	$68719492368, %rdx              # imm = 0x1000003D10
	mulq	%rdx
	addq	%rax, %rcx
	adcq	%rdx, %r15
	shrdq	$52, %r9, %r8
	movq	%rcx, %rsi
	movabsq	$4503599627370495, %rdx         # imm = 0xFFFFFFFFFFFFF
	andq	%rdx, %rsi
	movq	%rsi, 24(%rsp)
	shrdq	$52, %r15, %rcx
	xorq	%r15, %r15
	movq	(%rbx), %rax
	mulq	%r14
	addq	%rax, %rcx
	adcq	%rdx, %r15
	movq	8(%rbx), %rax
	mulq	%r13
	addq	%rax, %rcx
	adcq	%rdx, %r15
	movq	16(%rbx), %rax
	mulq	%r12
	addq	%rax, %rcx
	adcq	%rdx, %r15
	movq	24(%rbx), %rax
	mulq	%r11
	addq	%rax, %rcx
	adcq	%rdx, %r15
	movq	32(%rbx), %rax
	mulq	%r10
	addq	%rax, %rcx
	adcq	%rdx, %r15
	movq	%r8, %rax
	movabsq	$68719492368, %rdx              # imm = 0x1000003D10
	mulq	%rdx
	addq	%rax, %rcx
	adcq	%rdx, %r15
	movq	%rcx, %rsi
	movabsq	$4503599627370495, %rdx         # imm = 0xFFFFFFFFFFFFF
	andq	%rdx, %rsi
	shrdq	$52, %r15, %rcx
	xorq	%r15, %r15
	movq	%rsi, %rax
	shrq	$48, %rax
	movq	%rax, 48(%rsp)
	movabsq	$281474976710655, %rax          # imm = 0xFFFFFFFFFFFF
	andq	%rax, %rsi
	movq	%rsi, 16(%rsp)
	movq	(%rbx), %rax
	mulq	%r10
	movq	%rax, %r8
	movq	%rdx, %r9
	movq	8(%rbx), %rax
	mulq	%r14
	addq	%rax, %rcx
	adcq	%rdx, %r15
	movq	16(%rbx), %rax
	mulq	%r13
	addq	%rax, %rcx
	adcq	%rdx, %r15
	movq	24(%rbx), %rax
	mulq	%r12
	addq	%rax, %rcx
	adcq	%rdx, %r15
	movq	32(%rbx), %rax
	mulq	%r11
	addq	%rax, %rcx
	adcq	%rdx, %r15
	movq	%rcx, %rsi
	movabsq	$4503599627370495, %rdx         # imm = 0xFFFFFFFFFFFFF
	andq	%rdx, %rsi
	shrdq	$52, %r15, %rcx
	xorq	%r15, %r15
	shlq	$4, %rsi
	movq	48(%rsp), %rax
	orq	%rax, %rsi
	movabsq	$4294968273, %rax               # imm = 0x1000003D1
	mulq	%rsi
	addq	%rax, %r8
	adcq	%rdx, %r9
	movq	%r8, %rax
	movabsq	$4503599627370495, %rdx         # imm = 0xFFFFFFFFFFFFF
	andq	%rdx, %rax
	movq	%rax, (%rdi)
	shrdq	$52, %r9, %r8
	xorq	%r9, %r9
	movq	(%rbx), %rax
	mulq	%r11
	addq	%rax, %r8
	adcq	%rdx, %r9
	movq	8(%rbx), %rax
	mulq	%r10
	addq	%rax, %r8
	adcq	%rdx, %r9
	movq	16(%rbx), %rax
	mulq	%r14
	addq	%rax, %rcx
	adcq	%rdx, %r15
	movq	24(%rbx), %rax
	mulq	%r13
	addq	%rax, %rcx
	adcq	%rdx, %r15
	movq	32(%rbx), %rax
	mulq	%r12
	addq	%rax, %rcx
	adcq	%rdx, %r15
	movq	%rcx, %rax
	movabsq	$4503599627370495, %rdx         # imm = 0xFFFFFFFFFFFFF
	andq	%rdx, %rax
	movabsq	$68719492368, %rdx              # imm = 0x1000003D10
	mulq	%rdx
	addq	%rax, %r8
	adcq	%rdx, %r9
	shrdq	$52, %r15, %rcx
	xorq	%r15, %r15
	movq	%r8, %rax
	movabsq	$4503599627370495, %rdx         # imm = 0xFFFFFFFFFFFFF
	andq	%rdx, %rax
	movq	%rax, 8(%rdi)
	shrdq	$52, %r9, %r8
	xorq	%r9, %r9
	movq	(%rbx), %rax
	mulq	%r12
	addq	%rax, %r8
	adcq	%rdx, %r9
	movq	8(%rbx), %rax
	mulq	%r11
	addq	%rax, %r8
	adcq	%rdx, %r9
	movq	16(%rbx), %rax
	mulq	%r10
	addq	%rax, %r8
	adcq	%rdx, %r9
	movq	16(%rsp), %rsi
	movq	24(%rsp), %r10
	movq	24(%rbx), %rax
	mulq	%r14
	addq	%rax, %rcx
	adcq	%rdx, %r15
	movq	32(%rbx), %rax
	mulq	%r13
	addq	%rax, %rcx
	adcq	%rdx, %r15
	movq	%rcx, %rax
	movabsq	$4503599627370495, %rdx         # imm = 0xFFFFFFFFFFFFF
	andq	%rdx, %rax
	movabsq	$68719492368, %rdx              # imm = 0x1000003D10
	mulq	%rdx
	addq	%rax, %r8
	adcq	%rdx, %r9
	shrdq	$52, %r15, %rcx
	movq	%r8, %rax
	movabsq	$4503599627370495, %rdx         # imm = 0xFFFFFFFFFFFFF
	andq	%rdx, %rax
	movq	%rax, 16(%rdi)
	shrdq	$52, %r9, %r8
	xorq	%r9, %r9
	addq	%r10, %r8
	movq	%rcx, %rax
	movabsq	$68719492368, %rdx              # imm = 0x1000003D10
	mulq	%rdx
	addq	%rax, %r8
	adcq	%rdx, %r9
	movq	%r8, %rax
	movabsq	$4503599627370495, %rdx         # imm = 0xFFFFFFFFFFFFF
	andq	%rdx, %rax
	movq	%rax, 24(%rdi)
	shrdq	$52, %r9, %r8
	addq	%rsi, %r8
	movq	%r8, 32(%rdi)

	#NO_APP
	movq	$1, 176(%rsp)
	xorps	%xmm0, %xmm0
	movups	%xmm0, 184(%rsp)
	movups	%xmm0, 200(%rsp)
	movups	96(%rsp), %xmm0
	movups	112(%rsp), %xmm1
	movaps	%xmm0, 224(%rsp)
	movaps	%xmm1, 240(%rsp)
	movq	128(%rsp), %rax
	movq	%rax, 256(%rsp)
	movups	136(%rsp), %xmm0
	movups	%xmm0, 264(%rsp)
	movups	152(%rsp), %xmm0
	movups	%xmm0, 280(%rsp)
	movq	168(%rsp), %rax
	movq	%rax, 296(%rsp)
	cmpl	$0, 36(%rsp)                    # 4-byte Folded Reload
	je	.LBB21_13
# %bb.12:
	movabsq	$2306970012974547248, %rax      # imm = 0x2004010102D38130
	movq	40(%rsp), %rbx                  # 8-byte Reload
	movq	%rax, (%rbx)
	movq	80(%rsp), %rax
	bswapq	%rax
	movq	%rax, 8(%rbx)
	movq	72(%rsp), %rax
	bswapq	%rax
	movq	%rax, 16(%rbx)
	movq	64(%rsp), %rax
	bswapq	%rax
	movq	%rax, 24(%rbx)
	movq	56(%rsp), %rax
	bswapq	%rax
	movq	%rax, 32(%rbx)
	leaq	40(%rbx), %rdi
	leaq	secp256k1_eckey_privkey_serialize.middle(%rip), %rsi
	movl	$141, %edx
	callq	memcpy@PLT
	leaq	181(%rbx), %rsi
	leaq	224(%rsp), %rdi
	leaq	12(%rsp), %rdx
	movl	$1, %ecx
	callq	secp256k1_eckey_pubkey_serialize
	movl	$181, %ecx
	testl	%eax, %eax
	movl	$0, %ebp
	je	.LBB21_15
.LBB21_14:                              # %.critedge.sink.split.i
	addl	%ebx, %ecx
	addl	12(%rsp), %ecx
	subl	%ebx, %ecx
	movq	88(%rsp), %rax                  # 8-byte Reload
	movl	%ecx, (%rax)
	movl	$1, %ebp
.LBB21_15:                              # %secp256k1_eckey_privkey_serialize.exit
	movl	%ebp, %eax
	addq	$392, %rsp                      # imm = 0x188
	.cfi_def_cfa_offset 56
	popq	%rbx
	.cfi_def_cfa_offset 48
	popq	%r12
	.cfi_def_cfa_offset 40
	popq	%r13
	.cfi_def_cfa_offset 32
	popq	%r14
	.cfi_def_cfa_offset 24
	popq	%r15
	.cfi_def_cfa_offset 16
	popq	%rbp
	.cfi_def_cfa_offset 8
	retq
.LBB21_13:
	.cfi_def_cfa_offset 448
	movabsq	$288512959548850736, %rax       # imm = 0x401010213018230
	movq	40(%rsp), %rbx                  # 8-byte Reload
	movq	%rax, (%rbx)
	movb	$32, 8(%rbx)
	movq	80(%rsp), %rax
	bswapq	%rax
	movq	%rax, 9(%rbx)
	movq	72(%rsp), %rax
	bswapq	%rax
	movq	%rax, 17(%rbx)
	movq	64(%rsp), %rax
	bswapq	%rax
	movq	%rax, 25(%rbx)
	movq	56(%rsp), %rax
	bswapq	%rax
	movq	%rax, 33(%rbx)
	leaq	41(%rbx), %rdi
	leaq	secp256k1_eckey_privkey_serialize.middle.79(%rip), %rsi
	movl	$173, %edx
	callq	memcpy@PLT
	leaq	214(%rbx), %rsi
	leaq	224(%rsp), %rdi
	leaq	12(%rsp), %rdx
	xorl	%ebp, %ebp
	xorl	%ecx, %ecx
	callq	secp256k1_eckey_pubkey_serialize
	movl	$214, %ecx
	testl	%eax, %eax
	jne	.LBB21_14
	jmp	.LBB21_15
.LBB21_1:
	movq	stderr@GOTPCREL(%rip), %rax
	movq	(%rax), %rdi
	leaq	.L.str(%rip), %rsi
	leaq	.L.str.1(%rip), %rdx
	leaq	.L.str.10(%rip), %r8
	movl	$387, %ecx                      # imm = 0x183
	jmp	.LBB21_2
.LBB21_4:
	movq	stderr@GOTPCREL(%rip), %rax
	movq	(%rax), %rdi
	leaq	.L.str(%rip), %rsi
	leaq	.L.str.1(%rip), %rdx
	leaq	.L.str.15(%rip), %r8
	movl	$388, %ecx                      # imm = 0x184
	jmp	.LBB21_2
.LBB21_6:
	movq	stderr@GOTPCREL(%rip), %rax
	movq	(%rax), %rdi
	leaq	.L.str(%rip), %rsi
	leaq	.L.str.1(%rip), %rdx
	leaq	.L.str.16(%rip), %r8
	movl	$389, %ecx                      # imm = 0x185
	jmp	.LBB21_2
.LBB21_8:
	movq	stderr@GOTPCREL(%rip), %rax
	movq	(%rax), %rdi
	leaq	.L.str(%rip), %rsi
	leaq	.L.str.1(%rip), %rdx
	leaq	.L.str.2(%rip), %r8
	movl	$390, %ecx                      # imm = 0x186
	jmp	.LBB21_2
.LBB21_10:
	movq	stderr@GOTPCREL(%rip), %rax
	movq	(%rax), %rdi
	leaq	.L.str(%rip), %rsi
	leaq	.L.str.1(%rip), %rdx
	leaq	.L.str.7(%rip), %r8
	movl	$391, %ecx                      # imm = 0x187
.LBB21_2:
	xorl	%eax, %eax
	callq	fprintf@PLT
	callq	abort@PLT
.Lfunc_end21:
	.size	secp256k1_ec_privkey_export, .Lfunc_end21-secp256k1_ec_privkey_export
	.cfi_endproc
                                        # -- End function
	.globl	secp256k1_ec_privkey_import     # -- Begin function secp256k1_ec_privkey_import
	.p2align	4, 0x90
	.type	secp256k1_ec_privkey_import,@function
secp256k1_ec_privkey_import:            # @secp256k1_ec_privkey_import
	.cfi_startproc
# %bb.0:
	pushq	%r14
	.cfi_def_cfa_offset 16
	pushq	%rbx
	.cfi_def_cfa_offset 24
	subq	$88, %rsp
	.cfi_def_cfa_offset 112
	.cfi_offset %rbx, -24
	.cfi_offset %r14, -16
	testq	%rsi, %rsi
	je	.LBB22_1
# %bb.3:
	testq	%rdx, %rdx
	je	.LBB22_4
# %bb.5:
	xorps	%xmm0, %xmm0
	movaps	%xmm0, 64(%rsp)
	movaps	%xmm0, 48(%rsp)
	movl	$0, 12(%rsp)
	testl	%ecx, %ecx
	jle	.LBB22_22
# %bb.6:
	cmpl	$1, %ecx
	je	.LBB22_22
# %bb.7:
	cmpb	$48, (%rdx)
	jne	.LBB22_22
# %bb.8:
	movq	%rsi, %rbx
	movzbl	1(%rdx), %esi
	testb	$-128, %sil
	je	.LBB22_22
# %bb.9:
	andl	$127, %esi
	leal	-3(%rsi), %eax
	cmpl	$-2, %eax
	jb	.LBB22_22
# %bb.10:
	movslq	%ecx, %rax
	addq	%rdx, %rax
	addq	$2, %rdx
	movq	%rsi, %rcx
	addq	%rdx, %rcx
	cmpq	%rcx, %rax
	jb	.LBB22_22
# %bb.11:
	leal	-1(%rsi), %edi
	movzbl	(%rdx,%rdi), %r8d
	xorl	%edi, %edi
	cmpl	$2, %esi
	jb	.LBB22_13
# %bb.12:
	movzbl	(%rdx), %edi
	shll	$8, %edi
.LBB22_13:
	movl	%edi, %edx
	orq	%r8, %rdx
	addq	%rcx, %rdx
	cmpq	%rdx, %rax
	jb	.LBB22_22
# %bb.14:
	leaq	3(%rcx), %rdx
	cmpq	%rdx, %rax
	jb	.LBB22_22
# %bb.15:
	cmpb	$2, (%rcx)
	jne	.LBB22_22
# %bb.16:
	cmpb	$1, 1(%rcx)
	jne	.LBB22_22
# %bb.17:
	cmpb	$1, 2(%rcx)
	jne	.LBB22_22
# %bb.18:
	leaq	2(%rdx), %rsi
	cmpq	%rsi, %rax
	jb	.LBB22_22
# %bb.19:
	cmpb	$4, (%rdx)
	jne	.LBB22_22
# %bb.20:
	movzbl	1(%rdx), %edx
	cmpq	$32, %rdx
	ja	.LBB22_22
# %bb.21:
	leaq	(%rsi,%rdx), %rcx
	cmpq	%rcx, %rax
	jae	.LBB22_23
.LBB22_22:                              # %secp256k1_eckey_privkey_parse.exit.thread
	xorl	%eax, %eax
.LBB22_25:
	addq	$88, %rsp
	.cfi_def_cfa_offset 24
	popq	%rbx
	.cfi_def_cfa_offset 16
	popq	%r14
	.cfi_def_cfa_offset 8
	retq
.LBB22_23:                              # %secp256k1_eckey_privkey_parse.exit
	.cfi_def_cfa_offset 112
	leaq	48(%rsp), %r14
	movq	%r14, %rdi
	subq	%rdx, %rdi
	addq	$32, %rdi
	callq	memcpy@PLT
	leaq	16(%rsp), %rdi
	leaq	12(%rsp), %rdx
	movq	%r14, %rsi
	callq	secp256k1_scalar_set_b32
	xorl	%eax, %eax
	cmpl	$0, 12(%rsp)
	jne	.LBB22_25
# %bb.24:
	movq	40(%rsp), %rax
	bswapq	%rax
	movq	%rax, (%rbx)
	movq	32(%rsp), %rax
	bswapq	%rax
	movq	%rax, 8(%rbx)
	movq	24(%rsp), %rax
	bswapq	%rax
	movq	%rax, 16(%rbx)
	movq	16(%rsp), %rax
	bswapq	%rax
	movq	%rax, 24(%rbx)
	movl	$1, %eax
	addq	$88, %rsp
	.cfi_def_cfa_offset 24
	popq	%rbx
	.cfi_def_cfa_offset 16
	popq	%r14
	.cfi_def_cfa_offset 8
	retq
.LBB22_1:
	.cfi_def_cfa_offset 112
	movq	stderr@GOTPCREL(%rip), %rax
	movq	(%rax), %rdi
	leaq	.L.str(%rip), %rsi
	leaq	.L.str.1(%rip), %rdx
	leaq	.L.str.10(%rip), %r8
	movl	$402, %ecx                      # imm = 0x192
	jmp	.LBB22_2
.LBB22_4:
	movq	stderr@GOTPCREL(%rip), %rax
	movq	(%rax), %rdi
	leaq	.L.str(%rip), %rsi
	leaq	.L.str.1(%rip), %rdx
	leaq	.L.str.15(%rip), %r8
	movl	$403, %ecx                      # imm = 0x193
.LBB22_2:
	xorl	%eax, %eax
	callq	fprintf@PLT
	callq	abort@PLT
.Lfunc_end22:
	.size	secp256k1_ec_privkey_import, .Lfunc_end22-secp256k1_ec_privkey_import
	.cfi_endproc
                                        # -- End function
	.globl	secp256k1_context_randomize     # -- Begin function secp256k1_context_randomize
	.p2align	4, 0x90
	.type	secp256k1_context_randomize,@function
secp256k1_context_randomize:            # @secp256k1_context_randomize
	.cfi_startproc
# %bb.0:
	pushq	%rax
	.cfi_def_cfa_offset 16
	testq	%rdi, %rdi
	je	.LBB23_1
# %bb.3:
	cmpq	$0, 8(%rdi)
	je	.LBB23_4
# %bb.5:
	addq	$8, %rdi
	callq	secp256k1_ecmult_gen_blind
	movl	$1, %eax
	popq	%rcx
	.cfi_def_cfa_offset 8
	retq
.LBB23_1:
	.cfi_def_cfa_offset 16
	movq	stderr@GOTPCREL(%rip), %rax
	movq	(%rax), %rdi
	leaq	.L.str(%rip), %rsi
	leaq	.L.str.1(%rip), %rdx
	leaq	.L.str.2(%rip), %r8
	movl	$415, %ecx                      # imm = 0x19F
	jmp	.LBB23_2
.LBB23_4:
	movq	stderr@GOTPCREL(%rip), %rax
	movq	(%rax), %rdi
	leaq	.L.str(%rip), %rsi
	leaq	.L.str.1(%rip), %rdx
	leaq	.L.str.7(%rip), %r8
	movl	$416, %ecx                      # imm = 0x1A0
.LBB23_2:
	xorl	%eax, %eax
	callq	fprintf@PLT
	callq	abort@PLT
.Lfunc_end23:
	.size	secp256k1_context_randomize, .Lfunc_end23-secp256k1_context_randomize
	.cfi_endproc
                                        # -- End function
	.section	.rodata.cst16,"aM",@progbits,16
	.p2align	4                               # -- Begin function secp256k1_ecmult_gen_blind
.LCPI24_0:
	.quad	15814739681549316               # 0x382f6c04ef1c04
	.quad	16736317891044920               # 0x3b7597aabe6638
.LCPI24_1:
	.quad	14055019942963272               # 0x31eef75702e848
	.quad	14559364240130108               # 0x33b9aa25b0403c
.LCPI24_2:
	.quad	1046482296297817                # 0x3b7c52588d959
	.quad	1                               # 0x1
	.text
	.p2align	4, 0x90
	.type	secp256k1_ecmult_gen_blind,@function
secp256k1_ecmult_gen_blind:             # @secp256k1_ecmult_gen_blind
	.cfi_startproc
# %bb.0:
	pushq	%rbp
	.cfi_def_cfa_offset 16
	pushq	%r15
	.cfi_def_cfa_offset 24
	pushq	%r14
	.cfi_def_cfa_offset 32
	pushq	%r13
	.cfi_def_cfa_offset 40
	pushq	%r12
	.cfi_def_cfa_offset 48
	pushq	%rbx
	.cfi_def_cfa_offset 56
	subq	$360, %rsp                      # imm = 0x168
	.cfi_def_cfa_offset 416
	.cfi_offset %rbx, -56
	.cfi_offset %r12, -48
	.cfi_offset %r13, -40
	.cfi_offset %r14, -32
	.cfi_offset %r15, -24
	.cfi_offset %rbp, -16
	movq	%rdi, %rbp
	testq	%rsi, %rsi
	je	.LBB24_2
# %bb.1:                                # %._crit_edge
	movq	32(%rbp), %rdx
	movq	16(%rbp), %rax
	movq	24(%rbp), %rcx
	jmp	.LBB24_3
.LBB24_2:
	movq	%rsp, %rsi
	movq	secp256k1_ge_const_g+32(%rip), %rax
	movq	%rax, 72(%rbp)
	movups	secp256k1_ge_const_g+16(%rip), %xmm0
	movups	%xmm0, 56(%rbp)
	movups	secp256k1_ge_const_g(%rip), %xmm0
	movups	%xmm0, 40(%rbp)
	xorps	%xmm0, %xmm0
	movups	%xmm0, 128(%rbp)
	movups	%xmm0, 144(%rbp)
	movl	$0, 160(%rbp)
	movaps	.LCPI24_0(%rip), %xmm1          # xmm1 = [15814739681549316,16736317891044920]
	movups	%xmm1, 80(%rbp)
	movaps	.LCPI24_1(%rip), %xmm1          # xmm1 = [14055019942963272,14559364240130108]
	movups	%xmm1, 96(%rbp)
	movaps	.LCPI24_2(%rip), %xmm1          # xmm1 = [1046482296297817,1]
	movups	%xmm1, 112(%rbp)
	movq	$1, 8(%rbp)
	movups	%xmm0, 16(%rbp)
	movq	$0, 32(%rbp)
	xorl	%eax, %eax
	xorl	%ecx, %ecx
	xorl	%edx, %edx
.LBB24_3:
	movabsq	$4503599627370495, %r12         # imm = 0xFFFFFFFFFFFFF
	leaq	8(%rbp), %rdi
	movq	%rdi, 152(%rsp)                 # 8-byte Spill
	movq	%rdx, %rdi
	shrq	$56, %rdi
	movb	%dil, (%rsp)
	movq	%rdx, %rdi
	shrq	$48, %rdi
	movb	%dil, 1(%rsp)
	movq	%rdx, %rdi
	shrq	$40, %rdi
	movb	%dil, 2(%rsp)
	movq	%rdx, %rdi
	shrq	$32, %rdi
	movb	%dil, 3(%rsp)
	movq	%rdx, %rdi
	shrq	$24, %rdi
	movb	%dil, 4(%rsp)
	movq	%rdx, %rdi
	shrq	$16, %rdi
	movb	%dil, 5(%rsp)
	movb	%dh, 6(%rsp)
	movb	%dl, 7(%rsp)
	movq	%rcx, %rdx
	shrq	$56, %rdx
	movb	%dl, 8(%rsp)
	movq	%rcx, %rdx
	shrq	$48, %rdx
	movb	%dl, 9(%rsp)
	movq	%rcx, %rdx
	shrq	$40, %rdx
	movb	%dl, 10(%rsp)
	movq	%rcx, %rdx
	shrq	$32, %rdx
	movb	%dl, 11(%rsp)
	movq	%rcx, %rdx
	shrq	$24, %rdx
	movb	%dl, 12(%rsp)
	movq	%rcx, %rdx
	shrq	$16, %rdx
	movb	%dl, 13(%rsp)
	movb	%ch, 14(%rsp)
	movb	%cl, 15(%rsp)
	movq	%rax, %rcx
	shrq	$56, %rcx
	movb	%cl, 16(%rsp)
	movq	%rax, %rcx
	shrq	$48, %rcx
